(lp1
S'head'
p2
ag2
ag2
ag2
ag2
ag2
ag2
ag2
ag2
ag2
ag2
ag2
ag2
ag2
ag2
ag2
ag2
ag2
ag2
ag2
ag2
ag2
ag2
ag2
ag2
ag2
ag2
ag2
ag2
ag2
ag2
ag2
ag2
ag2
ag2
ag2
ag2
ag2
ag2
ag2
ag2
ag2
ag2
ag2
ag2
ag2
ag2
ag2
ag2
ag2
ag2
ag2
ag2
ag2
ag2
ag2
ag2
ag2
ag2
ag2
ag2
ag2
ag2
ag2
ag2
ag2
ag2
ag2
ag2
ag2
ag2
ag2
ag2
ag2
ag2
ag2
ag2
ag2
ag2
ag2
ag2
ag2
ag2
ag2
ag2
ag2
ag2
ag2
ag2
ag2
ag2
ag2
ag2
ag2
ag2
ag2
ag2
ag2
ag2
ag2
ag2
ag2
ag2
ag2
ag2
ag2
ag2
ag2
ag2
ag2
ag2
ag2
ag2
ag2
ag2
ag2
ag2
ag2
ag2
ag2
ag2
ag2
ag2
ag2
ag2
ag2
ag2
ag2
ag2
ag2
ag2
ag2
ag2
ag2
ag2
ag2
ag2
ag2
ag2
ag2
ag2
ag2
ag2
ag2
ag2
ag2
ag2
ag2
ag2
ag2
aS'head'
p3
ag3
ag3
ag3
ag2
ag2
ag2
ag2
ag2
ag2
ag2
ag2
ag2
ag2
ag2
ag2
ag2
ag2
ag2
ag2
ag2
ag2
ag2
ag2
ag2
ag2
ag2
ag2
ag2
ag2
ag2
ag2
ag2
ag2
ag2
ag2
ag2
ag2
ag2
ag2
ag2
ag2
ag2
ag2
ag2
ag2
ag2
ag2
ag2
ag2
ag2
ag2
ag2
ag2
ag2
ag2
ag3
ag3
ag3
ag3
ag3
ag3
ag3
ag3
ag3
ag3
ag3
ag3
ag3
ag3
ag2
ag2
ag3
ag3
ag3
ag2
ag2
ag2
ag2
ag2
ag2
ag2
ag2
ag2
ag2
ag2
ag2
ag2
ag2
ag2
ag2
ag2
ag2
ag2
ag2
ag2
ag2
ag2
ag2
ag2
ag2
ag2
ag2
ag2
ag2
ag2
ag3
ag3
ag2
ag2
ag2
ag2
ag2
ag2
ag2
ag2
ag2
ag2
ag2
ag2
ag2
ag2
ag2
ag2
ag2
ag2
ag2
ag2
ag2
ag2
ag2
ag2
ag2
ag2
ag3
ag3
ag2
ag2
ag2
ag2
ag2
ag2
ag2
ag2
ag2
ag2
ag3
ag3
ag3
ag3
ag3
ag3
ag2
ag2
ag2
ag2
ag2
ag2
ag3
ag3
ag2
ag2
ag2
ag2
ag2
ag2
ag2
ag2
ag2
ag2
ag2
ag2
ag2
ag2
ag2
ag2
ag2
ag2
ag2
ag2
ag2
ag2
ag2
ag3
ag3
ag2
ag2
ag2
ag2
ag2
ag2
ag2
ag2
ag2
ag2
ag2
ag2
ag2
ag2
ag2
ag2
ag2
ag2
ag2
ag2
ag2
ag2
ag2
ag2
ag2
ag2
ag2
ag2
ag2
ag2
ag2
ag2
ag2
ag2
ag2
ag2
ag2
ag2
ag2
ag2
ag2
ag2
ag2
ag2
ag2
ag2
ag2
ag2
ag2
ag2
ag2
ag2
ag2
ag2
ag2
ag2
ag2
ag2
ag2
ag2
ag2
ag2
ag2
ag2
ag2
ag2
ag2
ag2
ag2
ag2
ag2
ag2
ag2
ag2
ag2
ag2
ag2
ag2
ag2
ag2
ag2
ag2
ag2
ag2
ag2
ag2
ag2
ag2
ag3
ag3
ag3
ag3
ag2
ag2
ag2
ag2
ag2
ag2
ag2
ag2
ag2
ag2
ag2
ag2
ag2
ag3
ag3
ag2
ag2
ag2
ag2
ag2
ag2
ag2
ag2
ag2
ag3
ag3
ag3
ag2
ag2
ag2
ag2
ag2
ag2
ag3
ag2
ag2
ag2
ag2
ag2
ag2
ag2
ag2
ag2
ag2
ag2
ag2
ag2
ag2
ag2
ag2
ag2
ag2
ag2
ag2
ag2
ag2
ag2
ag2
ag2
ag2
ag2
ag2
ag2
ag2
ag2
ag2
ag2
ag2
ag2
ag2
ag2
ag2
ag2
ag2
ag2
ag2
ag2
ag2
ag2
ag2
ag2
ag2
ag2
ag2
ag2
ag2
ag2
ag2
ag2
ag2
ag2
ag2
ag2
ag2
ag2
ag2
ag2
ag2
ag2
ag2
ag2
ag2
ag2
ag2
ag2
ag2
ag2
ag2
ag2
ag2
ag2
ag2
ag2
ag2
ag2
ag2
ag2
ag2
ag2
ag2
ag2
ag2
ag2
ag2
ag2
ag2
ag2
ag2
ag2
ag2
ag2
ag2
ag2
ag2
ag2
ag2
ag2
ag2
ag2
ag2
ag2
ag2
ag2
aS'upperBody'
p4
ag3
ag3
ag4
ag2
ag2
ag2
ag2
ag2
ag2
ag2
ag2
ag2
ag2
ag4
ag4
ag4
ag4
ag4
ag4
ag4
ag4
ag4
ag4
ag4
ag4
ag4
ag4
ag4
ag4
ag4
ag4
ag4
ag4
ag4
ag4
ag4
ag4
ag4
ag4
ag4
ag4
ag4
ag4
ag4
ag4
ag4
ag4
ag4
ag4
ag4
ag4
ag4
ag4
ag4
ag4
aS'leftArm'
p5
ag5
ag5
ag5
aS'lowerBody'
p6
ag6
ag6
ag6
ag5
ag5
ag4
ag4
ag4
ag4
ag4
ag4
ag4
ag4
ag4
ag4
ag4
ag4
ag4
ag4
ag4
ag4
ag4
ag4
ag6
ag6
ag6
ag6
ag4
ag4
ag4
ag4
ag6
ag6
ag6
ag6
ag4
ag4
ag4
ag4
ag4
ag4
ag4
ag4
ag4
ag4
ag6
ag6
ag6
ag6
ag5
ag5
ag4
ag4
ag4
ag4
ag4
ag4
ag4
ag4
ag4
ag4
ag4
ag4
ag4
ag4
ag4
ag4
ag4
ag4
ag4
ag4
ag4
ag4
ag4
ag6
ag4
ag4
ag4
ag4
ag4
ag4
ag4
ag4
ag4
ag4
ag5
ag5
ag5
ag5
ag6
ag6
ag4
ag4
ag4
ag4
ag4
ag4
ag4
ag4
ag4
ag4
ag4
ag4
ag4
ag4
ag4
ag4
ag4
ag4
ag4
ag4
ag4
ag4
ag4
ag4
ag4
ag4
ag4
ag4
ag4
ag4
ag4
ag4
ag4
ag4
ag4
ag4
ag4
ag4
ag4
ag4
ag4
ag4
ag4
ag6
ag4
ag4
ag6
ag5
ag5
ag5
ag5
ag5
ag5
ag5
ag5
ag5
ag5
ag5
ag5
ag4
ag4
ag4
ag5
ag5
ag5
ag5
ag5
ag5
ag5
ag5
ag5
ag5
ag4
ag4
ag6
ag6
ag6
ag6
ag6
ag6
ag6
ag4
ag4
ag4
ag4
ag6
ag6
ag6
ag6
ag4
ag4
ag4
ag4
ag6
ag6
ag4
ag4
ag4
ag4
ag4
ag6
ag6
ag4
ag3
ag3
ag3
ag3
ag3
ag6
ag6
ag6
aS'leftThigh'
p7
ag7
ag6
ag6
ag6
ag6
ag6
ag6
ag6
ag6
ag6
ag6
ag6
ag6
ag7
ag7
ag7
ag7
ag7
ag7
ag7
ag7
ag6
ag6
ag6
ag6
ag6
ag6
ag6
ag6
ag6
ag6
ag6
ag6
ag6
ag6
ag6
ag7
ag7
ag7
ag7
ag7
ag7
ag7
ag7
ag7
ag7
ag7
ag7
ag6
ag6
ag6
ag6
ag6
ag6
ag6
ag6
ag6
ag4
ag4
ag4
ag4
ag4
ag4
ag7
ag7
ag7
ag7
ag7
ag7
ag7
ag7
ag7
ag7
ag7
ag7
ag7
ag7
ag7
ag6
ag7
ag7
ag6
ag6
ag6
ag6
ag6
ag6
ag6
ag6
ag6
ag6
ag4
ag4
ag4
ag4
ag4
ag4
ag4
ag6
ag7
ag7
ag7
ag7
ag6
ag6
ag6
ag4
ag4
ag4
ag4
ag7
ag7
ag7
ag7
ag7
ag7
ag7
ag7
ag7
ag7
ag7
ag7
ag7
ag7
ag7
ag7
ag7
ag7
ag7
ag7
ag7
ag7
ag7
ag7
ag7
ag7
ag7
ag7
ag7
ag7
ag7
ag7
ag7
ag7
ag7
ag7
ag7
ag7
ag7
ag7
ag7
ag7
ag7
ag7
ag7
ag7
ag7
ag7
ag7
ag7
ag7
aS'leftThigh'
p8
ag7
ag7
ag8
ag8
ag7
ag7
ag8
ag7
ag8
ag8
ag7
ag7
ag8
ag7
ag8
ag7
ag8
ag7
ag7
ag8
ag8
ag7
ag8
ag8
ag7
ag7
ag7
ag7
ag7
ag7
ag7
ag7
ag7
ag7
ag7
ag7
ag7
ag7
ag7
ag7
ag7
ag7
ag7
ag7
ag7
ag7
ag7
ag8
ag8
ag7
ag7
ag8
ag8
ag8
ag8
ag8
ag8
ag8
ag8
ag8
ag8
ag8
ag8
ag8
ag8
ag8
ag8
ag8
ag8
ag8
ag8
ag8
ag8
ag8
ag8
ag8
ag8
ag8
ag8
ag8
ag8
ag8
ag8
ag8
ag8
ag8
ag8
ag8
ag8
ag8
ag8
ag8
ag8
ag8
ag8
ag8
ag8
ag8
ag8
ag8
ag8
ag8
ag8
ag8
ag8
ag8
ag8
ag8
ag8
ag8
ag8
ag8
ag8
ag8
ag8
ag8
ag8
ag8
ag8
ag8
ag8
ag8
ag8
ag8
ag8
ag8
ag8
ag8
ag8
ag8
ag8
ag8
ag8
ag8
ag8
ag8
ag8
ag8
ag8
ag8
ag8
ag7
ag7
ag7
ag7
ag7
ag7
ag7
ag7
ag7
ag7
ag7
ag8
ag8
ag8
ag8
ag8
ag8
ag8
ag8
ag8
ag8
ag8
ag7
ag7
ag7
ag7
ag7
ag7
ag7
ag7
ag7
ag7
ag7
ag7
ag7
ag7
ag7
ag7
ag8
ag8
ag8
ag8
ag8
ag8
ag8
ag8
ag8
ag7
ag7
ag7
ag7
ag6
ag6
ag4
ag4
ag4
ag4
ag4
ag4
ag4
ag4
ag4
ag4
ag4
ag4
ag4
ag6
ag6
ag6
ag6
ag6
ag6
aS'rightThigh'
p9
ag9
ag6
ag4
ag4
ag4
ag4
ag4
ag4
ag4
ag4
ag4
ag7
ag7
ag7
ag7
ag7
ag7
ag7
ag7
ag7
ag7
ag5
ag5
ag5
ag5
ag4
ag4
ag4
ag4
ag4
ag4
ag4
ag4
ag4
ag4
ag4
ag6
ag6
ag6
ag6
ag6
ag6
ag4
ag4
ag4
ag4
ag4
ag4
ag5
ag5
ag5
ag5
ag7
ag7
ag6
ag6
ag6
ag6
ag4
ag4
ag4
ag5
ag4
ag4
ag7
ag7
ag7
ag7
ag9
ag3
ag3
ag5
ag5
ag4
ag4
ag4
ag4
ag4
ag4
ag4
ag4
ag4
ag4
ag4
ag4
ag4
ag4
ag4
ag4
ag4
ag4
ag4
ag4
ag4
ag4
ag4
ag4
ag3
ag4
ag4
ag5
ag5
ag3
ag3
ag5
ag5
ag4
ag4
ag4
ag3
ag3
ag7
ag7
ag6
ag6
ag6
ag6
ag6
ag6
ag4
ag4
ag3
ag6
ag6
ag6
ag6
ag6
ag6
ag6
ag6
ag5
ag5
ag5
ag5
ag6
ag6
ag4
ag4
ag4
ag4
ag4
ag4
ag4
ag9
ag7
ag5
ag5
ag5
ag5
ag7
ag7
ag7
ag7
ag9
ag9
ag7
ag7
ag7
ag7
ag8
ag8
ag8
ag8
ag8
ag8
ag8
ag5
ag5
ag5
ag5
ag5
ag5
ag5
ag5
ag5
ag5
ag5
ag5
ag5
ag5
ag5
ag5
ag5
ag5
ag5
ag5
ag5
ag5
ag5
ag5
ag5
ag4
ag5
ag5
ag5
ag5
ag5
ag5
ag5
ag5
ag5
ag5
ag5
ag5
ag5
ag5
ag5
ag4
ag4
ag4
ag4
ag4
ag4
ag4
ag4
ag4
ag4
ag4
ag5
ag5
ag5
ag5
ag5
ag5
ag4
ag4
ag4
ag4
ag5
ag5
ag5
ag5
ag5
ag5
ag5
ag5
ag6
ag6
ag6
ag6
ag6
ag7
ag7
ag7
ag6
ag7
ag7
ag7
ag7
ag7
ag7
ag7
ag7
ag7
ag8
ag8
ag8
ag8
ag8
ag8
ag8
ag8
ag8
ag8
ag8
ag7
ag9
ag7
ag7
ag7
ag7
ag6
ag6
ag6
ag6
ag6
ag6
ag6
ag6
ag6
ag6
ag6
ag6
ag6
ag6
ag6
ag6
ag6
ag7
ag7
ag7
ag7
ag5
ag4
ag4
ag5
ag5
ag5
ag5
ag5
ag5
ag6
ag7
ag6
ag7
ag9
ag7
ag7
ag7
ag7
ag7
ag7
ag8
ag8
ag8
ag8
ag8
ag8
ag8
ag8
ag8
ag8
ag8
ag7
ag7
ag4
ag4
ag4
ag5
ag6
ag6
ag5
ag5
ag5
ag4
ag5
ag5
ag5
ag5
ag5
ag5
ag5
ag5
ag5
ag5
ag5
ag5
ag5
ag5
ag5
ag5
ag5
ag5
ag5
ag5
ag5
ag5
ag5
ag5
ag5
ag5
ag5
ag5
ag5
ag5
ag5
ag5
ag5
ag5
ag5
ag5
ag5
ag5
ag5
ag5
ag5
ag5
ag5
ag5
ag5
ag5
ag5
ag5
ag5
ag5
ag5
ag5
ag5
ag5
ag5
ag5
ag5
ag5
ag5
ag5
ag5
ag5
ag5
ag5
ag5
ag5
ag5
ag5
ag5
ag5
ag5
ag5
ag5
ag5
ag5
ag5
ag5
ag5
ag5
ag5
ag5
ag5
ag5
ag5
ag5
ag5
ag5
ag5
ag5
ag5
ag5
ag5
ag5
ag5
ag5
ag5
ag5
ag5
ag5
ag5
ag5
ag5
ag5
ag5
ag5
ag5
ag5
ag5
ag5
ag5
ag5
ag5
ag5
ag5
ag5
ag5
ag5
ag5
ag5
ag5
ag5
ag5
ag5
ag5
ag5
ag5
ag5
ag5
ag5
ag5
ag5
ag5
ag5
ag5
ag5
ag5
ag5
ag5
ag5
ag5
ag5
ag5
ag5
ag5
ag5
ag5
ag5
ag5
ag5
ag5
ag5
ag5
ag5
ag5
ag5
ag5
ag5
ag5
ag5
ag5
ag5
ag5
ag5
ag5
ag5
ag5
ag5
ag5
ag5
ag5
ag5
ag5
ag5
ag5
ag5
ag5
ag5
ag5
ag5
ag5
ag5
ag5
ag5
ag5
ag5
ag5
ag5
ag5
ag5
ag5
ag5
ag5
ag5
ag5
ag5
ag5
ag5
ag5
ag5
ag5
ag5
ag5
ag5
ag5
ag5
ag5
ag5
ag5
ag4
ag4
ag4
ag4
ag4
ag4
ag4
ag4
ag5
ag4
ag4
ag2
ag2
ag2
ag6
ag6
ag6
ag2
ag2
ag2
ag2
ag2
ag2
ag2
ag2
ag2
ag6
ag6
ag6
ag6
ag6
ag6
ag6
ag6
ag6
ag6
ag6
ag6
ag6
ag6
ag6
ag6
ag6
ag6
ag6
ag6
ag6
ag6
ag6
ag6
ag6
ag6
ag6
ag6
ag6
ag4
ag4
ag4
ag4
ag4
ag4
ag4
ag4
ag4
ag4
ag4
ag4
ag4
ag4
ag4
ag4
ag4
ag4
ag4
ag4
ag4
ag4
ag5
ag5
ag4
ag4
ag4
ag4
ag4
ag4
ag4
ag4
ag4
ag4
ag4
ag4
ag5
ag5
ag5
ag5
ag5
ag4
ag5
ag5
ag4
ag4
ag5
ag5
ag4
ag4
ag5
ag4
ag5
ag4
ag4
ag4
ag4
ag5
ag5
ag5
ag5
ag5
ag5
ag5
ag4
ag4
ag5
ag5
ag5
ag5
ag5
ag4
ag5
ag4
ag5
ag5
ag4
ag4
ag4
ag4
ag5
ag5
ag4
ag4
ag5
ag4
ag4
ag4
ag4
ag4
ag4
ag4
ag5
ag5
ag5
ag5
ag5
ag2
ag2
ag2
ag2
ag5
ag5
ag5
ag5
ag5
ag5
ag5
ag5
ag5
ag5
ag5
ag5
ag5
ag5
ag5
ag5
ag5
ag5
ag5
ag5
ag5
ag5
ag5
ag5
ag5
ag5
ag5
ag5
ag5
ag5
ag5
ag5
ag5
ag5
ag5
ag5
ag5
ag5
ag5
ag5
ag5
ag5
ag5
ag5
ag5
ag5
ag5
ag5
ag5
ag5
ag5
ag5
ag5
ag5
ag5
ag5
ag5
ag5
ag5
ag5
ag5
ag5
ag5
ag5
ag5
ag5
ag5
ag5
ag5
ag5
ag5
ag5
aS'leftHand'
p10
ag10
ag10
ag10
ag10
ag10
ag10
ag10
ag10
ag10
ag10
ag10
ag10
ag10
ag10
ag10
ag10
ag10
ag10
ag10
ag10
ag10
ag10
ag10
ag10
ag10
ag10
ag10
ag10
ag10
ag10
ag10
ag10
ag10
ag10
ag10
ag10
ag10
ag10
ag10
ag10
ag10
ag10
ag10
ag10
ag10
aS'leftHand'
p11
ag11
ag11
ag11
ag10
ag10
ag10
ag10
ag10
ag10
ag11
ag11
ag11
ag11
ag10
ag10
ag10
ag10
ag10
ag10
ag10
ag10
ag10
ag10
ag10
ag10
ag10
ag10
ag11
ag11
ag11
ag11
ag10
ag10
ag10
ag10
ag10
ag10
ag10
ag10
ag11
ag11
ag10
ag10
ag10
ag10
ag10
ag10
ag10
ag10
ag10
ag10
ag10
ag10
ag10
ag10
ag10
ag10
ag10
ag10
ag10
ag10
ag10
ag10
ag10
ag10
ag10
ag10
ag10
ag10
ag10
ag10
ag10
ag10
ag10
ag5
ag5
ag5
ag5
ag5
ag10
ag5
ag5
ag5
ag10
ag5
ag10
ag10
ag10
ag10
ag10
ag10
ag10
ag10
ag10
ag10
ag11
ag11
ag11
ag11
ag11
ag11
ag11
ag11
ag11
ag11
ag11
ag10
ag11
ag10
ag10
ag10
ag10
ag10
ag11
ag11
ag10
ag10
ag11
ag11
ag5
ag5
ag10
ag10
ag10
ag11
ag11
ag11
ag11
ag11
ag11
ag11
ag11
ag11
ag11
ag11
ag10
ag11
ag11
ag11
ag11
ag11
ag11
ag10
ag10
ag10
ag11
ag10
ag10
ag10
ag11
ag11
ag11
ag10
ag11
ag10
ag10
ag10
ag10
ag11
ag11
ag11
ag11
ag11
ag11
ag10
ag10
ag11
ag10
ag10
ag10
ag11
ag10
ag10
ag10
ag10
ag10
ag11
ag11
ag5
ag10
ag5
ag10
ag10
ag10
ag10
ag10
ag11
ag11
ag11
ag11
ag11
ag11
ag11
ag10
ag11
ag10
ag10
ag10
ag10
ag10
ag10
ag10
ag5
ag10
ag11
ag11
ag10
ag5
ag10
ag10
ag10
ag10
ag10
ag5
ag5
ag5
ag5
ag11
ag11
ag11
ag10
ag10
ag10
ag10
ag10
ag10
ag10
ag10
ag10
ag10
ag11
ag11
ag11
ag11
ag11
ag11
ag10
ag10
ag10
ag10
ag10
ag11
ag11
ag11
ag11
ag11
ag11
ag10
ag11
ag11
ag10
ag10
ag11
ag11
ag11
ag11
ag10
ag10
ag5
ag10
ag10
ag11
ag11
ag11
ag11
ag11
ag11
ag11
ag11
ag11
ag11
ag11
ag11
ag11
ag11
ag11
ag11
ag11
ag11
ag11
ag11
ag11
ag11
ag11
ag11
ag11
ag11
ag11
ag11
ag11
ag11
ag11
ag11
ag11
ag11
ag11
ag11
ag11
ag11
ag11
ag11
ag11
ag11
ag11
ag11
ag11
ag11
ag11
ag11
ag11
ag11
ag11
ag11
ag11
ag11
ag11
ag11
ag11
ag11
ag11
ag11
ag11
ag11
ag11
ag11
ag11
ag11
ag11
ag11
ag11
ag11
ag11
ag11
ag11
ag11
ag11
ag11
ag11
ag11
ag11
ag11
ag11
ag11
ag11
ag11
ag11
ag11
ag11
ag11
ag11
ag11
ag11
ag11
ag11
ag11
ag11
ag11
ag11
ag11
ag11
ag11
ag11
ag11
ag11
ag11
ag11
ag11
ag11
ag11
ag11
ag11
ag11
ag11
ag11
ag11
ag11
ag11
ag11
ag11
ag11
ag11
ag11
ag11
ag11
ag11
ag11
ag11
ag11
ag11
ag11
ag11
ag11
ag11
ag11
ag11
ag11
ag11
ag11
ag11
ag11
ag11
ag11
ag11
ag11
ag11
ag11
ag11
ag11
ag11
ag11
ag11
ag11
ag11
ag11
ag11
ag11
ag11
ag11
ag11
ag11
ag11
ag11
ag11
ag11
ag11
ag11
ag11
ag11
ag11
ag11
ag11
ag11
ag11
ag11
ag11
ag11
ag11
ag11
ag11
ag11
ag11
ag11
ag11
ag11
ag11
ag11
ag11
ag11
ag11
ag11
ag11
ag11
ag11
ag11
ag11
ag11
ag11
ag11
ag11
ag11
ag11
ag11
ag11
ag11
ag11
ag11
ag11
ag11
ag11
ag11
ag11
ag11
ag11
ag11
ag11
ag11
ag11
ag11
ag11
ag11
ag11
ag11
ag11
ag11
ag11
ag11
ag11
ag11
ag11
ag11
ag11
ag11
ag11
ag11
ag11
ag11
ag11
ag11
ag11
ag11
ag11
ag11
ag11
ag11
ag11
ag11
ag11
ag11
ag11
ag11
ag11
ag11
ag11
ag11
ag11
ag11
ag11
ag11
ag11
ag11
ag11
ag11
ag11
ag11
ag11
ag11
ag11
ag11
ag11
ag11
ag11
ag11
ag11
ag11
ag11
ag11
ag11
ag11
ag11
ag11
ag11
ag11
ag11
ag11
ag11
ag11
ag11
ag11
ag11
ag11
ag11
ag11
ag11
ag11
ag11
ag11
ag11
ag11
ag11
ag11
ag11
ag11
ag11
ag11
ag11
ag11
ag11
ag11
ag11
ag11
ag11
ag11
ag11
ag11
ag11
ag11
ag11
ag11
ag11
ag11
ag11
ag11
ag11
ag11
ag11
ag11
ag11
ag11
ag11
ag11
ag11
ag11
ag11
ag11
ag11
ag11
ag11
ag11
ag11
ag11
ag11
ag11
ag11
ag11
ag11
ag11
ag11
ag11
ag11
ag11
ag11
ag11
ag11
ag11
ag11
ag11
ag11
ag11
ag11
ag11
ag11
ag11
ag11
ag11
ag11
ag11
ag11
ag11
ag11
ag11
ag11
ag11
ag11
ag11
ag11
ag11
ag11
ag11
ag11
ag11
ag11
ag11
ag11
ag11
ag11
ag11
ag11
ag11
ag11
ag11
ag11
ag11
ag11
ag11
ag11
ag11
ag11
ag11
ag11
ag11
ag11
ag11
ag11
ag11
ag11
ag11
ag11
ag11
ag11
ag11
ag10
ag10
ag10
ag10
ag10
ag10
ag10
ag10
ag10
ag10
ag10
ag10
ag10
ag10
ag10
ag10
ag10
ag10
ag10
ag10
ag10
ag10
ag10
ag10
ag10
ag10
ag10
ag10
ag10
ag10
ag10
ag10
ag10
ag10
ag10
ag10
ag10
ag10
ag10
ag10
ag10
ag10
ag10
ag10
ag10
ag10
ag10
ag10
ag10
ag10
ag10
ag10
ag10
ag10
ag10
ag10
ag10
ag10
ag10
ag10
ag10
ag10
ag10
ag10
ag10
ag10
ag10
ag10
ag10
ag10
ag10
ag10
ag10
ag11
ag10
ag10
ag10
ag10
ag10
ag10
ag10
ag2
ag2
ag2
ag2
ag2
ag2
ag2
ag2
ag2
ag2
ag2
ag2
ag2
ag2
ag2
ag2
ag2
ag2
ag2
ag2
ag2
ag2
ag2
ag2
ag2
ag2
ag2
ag2
ag2
ag2
ag2
ag2
ag2
ag4
ag4
ag2
ag2
ag2
ag2
ag2
ag5
ag5
ag5
ag5
ag6
ag6
ag6
ag6
ag6
ag6
ag6
ag6
ag6
ag6
ag6
ag6
ag6
ag6
ag6
ag6
ag4
ag4
ag4
ag4
ag4
ag4
ag4
ag4
ag4
ag6
ag4
ag4
ag4
ag4
ag4
ag4
ag4
ag4
ag4
ag4
ag4
ag4
ag4
ag4
ag4
ag4
ag4
ag4
ag4
ag4
ag4
ag4
ag4
ag4
ag5
ag5
ag4
ag4
ag4
ag4
ag4
ag4
ag4
ag4
ag4
ag4
ag4
ag4
ag4
ag4
ag4
ag4
ag4
ag4
ag4
ag4
ag5
ag5
ag5
ag5
ag5
ag5
ag5
ag5
ag5
ag4
ag4
ag4
ag4
ag4
ag6
ag6
ag6
ag6
ag6
ag6
ag6
ag6
ag6
ag6
ag6
ag6
ag6
ag6
ag6
ag6
ag6
ag6
ag6
ag6
ag6
ag6
ag4
ag4
ag4
ag4
ag4
ag4
ag4
ag4
ag4
ag4
ag4
ag4
ag4
ag4
ag5
ag5
ag4
ag4
ag4
ag4
ag4
ag4
ag4
ag4
ag4
ag4
ag4
ag4
ag4
ag4
ag4
ag4
ag4
ag4
ag4
ag4
ag4
ag4
ag4
ag4
ag4
ag4
ag4
ag5
ag5
ag5
ag5
ag5
ag5
ag5
ag5
ag5
ag5
ag5
ag5
ag5
ag5
ag5
ag5
ag5
ag5
ag5
ag5
ag5
ag5
ag5
ag4
ag4
ag4
ag4
ag4
ag5
ag4
ag4
ag4
ag4
ag4
ag4
ag4
ag4
ag4
ag4
ag5
ag4
ag4
ag6
ag4
ag6
ag6
ag6
ag6
ag6
ag6
ag6
ag4
ag4
ag4
ag4
ag4
ag4
ag4
ag4
ag4
ag4
ag4
ag4
ag4
ag4
ag4
ag4
ag4
ag4
ag4
ag4
ag2
ag2
ag2
ag2
ag3
ag3
ag2
ag2
ag2
ag2
ag2
ag2
ag3
ag2
ag4
ag4
ag4
ag4
ag4
ag4
ag4
ag4
ag4
ag3
ag2
ag2
ag2
ag2
ag4
ag4
ag4
ag4
ag4
ag4
ag4
ag6
ag6
ag6
ag6
ag6
ag6
ag6
ag6
ag6
ag6
ag6
ag6
ag6
ag6
ag6
ag6
ag6
ag6
ag6
ag6
ag6
ag6
ag6
ag6
ag6
ag6
ag6
ag6
ag6
ag6
ag6
ag6
ag6
ag6
ag6
ag6
ag6
ag6
ag6
ag6
ag6
ag6
ag6
ag6
ag6
ag7
ag7
ag7
ag7
ag6
ag6
ag7
ag7
ag7
ag7
ag7
ag6
ag6
ag6
ag6
ag6
ag6
ag6
ag6
ag6
ag6
ag6
ag6
ag6
ag6
ag6
ag6
ag6
ag6
ag6
ag6
ag6
ag6
ag6
ag6
ag6
ag2
ag2
ag2
ag3
ag2
ag2
ag2
ag4
ag4
ag9
ag4
ag9
ag6
ag8
ag8
ag8
ag8
ag8
ag8
ag8
ag8
ag8
ag8
ag8
ag8
ag8
ag8
ag8
ag8
ag8
ag8
ag8
ag8
ag8
ag8
ag8
ag8
ag8
ag8
ag8
ag8
ag8
ag8
ag8
ag8
ag8
ag8
ag8
ag8
ag8
aS'leftFoot'
p12
ag12
ag12
ag12
ag12
ag12
ag12
ag12
ag12
ag12
ag12
ag12
ag12
ag12
ag12
ag12
ag12
ag12
ag12
ag12
ag12
ag12
ag12
ag12
ag12
ag12
ag12
ag12
ag12
ag12
ag12
ag12
ag12
ag12
ag12
ag12
ag12
ag12
ag12
ag12
ag12
ag12
ag12
ag12
ag12
ag12
ag12
ag12
ag12
ag12
ag12
ag12
ag12
ag12
ag12
ag12
ag12
ag12
ag12
ag12
ag12
ag12
ag12
ag12
ag12
ag12
ag12
ag12
ag12
ag12
ag12
ag12
ag12
ag12
ag12
ag12
ag12
ag12
ag12
ag12
ag12
ag12
ag12
ag12
ag12
ag12
ag12
ag12
ag12
ag12
ag12
ag12
ag12
ag12
ag12
ag12
ag12
ag12
ag12
ag12
ag12
ag12
ag12
ag12
ag12
ag12
ag12
ag12
ag8
ag8
ag8
ag8
ag8
aS'leftFoot'
p13
ag13
ag8
ag13
ag13
ag13
ag13
ag13
ag13
ag13
ag13
ag13
ag12
ag12
ag12
ag12
ag12
ag12
ag12
ag12
ag12
ag13
ag12
ag13
ag13
ag13
ag12
ag13
ag12
ag12
ag12
ag12
ag13
ag12
ag12
ag12
ag12
ag12
ag12
ag13
ag13
ag13
ag13
ag13
ag13
ag13
ag13
ag13
ag13
ag13
ag13
ag13
ag13
ag13
ag13
ag13
ag13
ag13
ag13
ag13
ag13
ag13
ag13
ag13
ag13
ag13
ag13
ag13
ag13
ag13
ag13
ag13
ag13
ag13
ag13
ag13
ag13
ag13
ag13
ag13
ag13
ag13
ag13
ag13
ag13
ag13
ag13
ag13
ag13
ag13
ag13
ag13
ag13
ag13
ag13
ag13
ag13
ag13
ag13
ag13
ag13
ag13
ag13
ag13
ag13
ag13
ag13
ag13
ag13
ag13
ag13
ag13
ag13
ag13
ag13
ag13
ag13
ag13
ag13
ag13
ag13
ag13
ag13
ag13
ag13
ag13
ag13
ag13
ag13
ag13
ag13
ag13
ag13
ag13
ag13
ag13
ag13
ag13
ag13
ag13
ag13
ag13
ag13
ag13
ag13
ag13
ag4
ag4
ag8
ag8
ag8
ag7
ag6
ag6
ag6
ag7
ag4
ag6
ag4
ag4
ag6
ag2
ag2
ag2
ag2
ag2
ag2
ag2
ag2
ag2
ag2
ag4
ag4
ag4
ag4
ag2
ag6
ag6
ag6
ag6
ag6
ag4
ag4
ag6
ag4
ag6
ag6
ag6
ag2
ag2
ag2
ag2
ag2
ag2
ag2
ag2
ag2
ag2
ag2
ag2
ag2
ag2
ag2
ag2
ag2
ag2
ag2
ag2
ag2
ag2
ag2
ag2
ag2
ag2
ag2
ag2
ag2
ag2
ag2
ag2
ag2
ag2
ag2
ag2
ag2
ag2
ag2
ag2
ag2
ag2
ag2
ag2
ag2
ag2
ag2
ag2
ag2
ag2
ag2
ag2
ag2
ag2
ag2
ag2
ag2
ag2
ag2
ag2
ag2
ag2
ag2
ag2
ag2
ag2
ag2
ag2
ag2
ag2
ag2
ag2
ag2
ag2
ag2
ag2
ag2
ag2
ag2
ag2
ag2
ag2
ag2
ag2
ag2
ag2
ag2
ag2
ag2
ag2
ag2
ag2
ag2
ag2
ag2
ag2
ag2
ag2
ag2
ag2
ag2
ag2
ag2
ag2
ag2
ag2
ag2
ag2
ag2
ag2
ag2
ag2
ag2
ag2
ag2
ag2
ag2
ag2
ag2
ag2
ag2
ag2
ag2
ag2
ag2
ag2
ag2
ag2
ag2
ag2
ag2
ag2
ag2
ag2
ag2
ag2
ag2
ag2
ag2
ag2
ag2
ag2
ag2
ag2
ag2
ag2
ag2
ag2
ag2
ag2
ag3
ag3
ag3
ag3
ag2
ag2
ag2
ag2
ag2
ag2
ag2
ag2
ag2
ag2
ag2
ag2
ag2
ag2
ag2
ag2
ag2
ag2
ag2
ag2
ag2
ag2
ag2
ag2
ag2
ag2
ag2
ag2
ag2
ag2
ag2
ag2
ag2
ag2
ag2
ag2
ag2
ag2
ag2
ag2
ag2
ag2
ag2
ag2
ag2
ag2
ag2
ag2
ag2
ag2
ag2
ag2
ag3
ag3
ag3
ag3
ag3
ag3
ag3
ag3
ag3
ag3
ag3
ag3
ag3
ag3
ag2
ag2
ag3
ag3
ag3
ag2
ag2
ag2
ag2
ag2
ag2
ag2
ag2
ag2
ag2
ag2
ag2
ag2
ag2
ag2
ag2
ag2
ag2
ag2
ag2
ag2
ag2
ag2
ag2
ag2
ag2
ag2
ag2
ag2
ag2
ag2
ag3
ag3
ag2
ag2
ag2
ag2
ag2
ag2
ag2
ag2
ag2
ag2
ag2
ag2
ag2
ag2
ag2
ag2
ag2
ag2
ag2
ag2
ag2
ag2
ag2
ag2
ag2
ag2
ag3
ag3
ag2
ag2
ag2
ag2
ag2
ag2
ag2
ag2
ag2
ag2
ag3
ag3
ag3
ag3
ag3
ag3
ag2
ag2
ag2
ag3
ag3
ag2
ag2
ag2
ag2
ag2
ag2
ag2
ag2
ag2
ag2
ag2
ag2
ag2
ag2
ag2
ag2
ag2
ag2
ag2
ag2
ag3
ag3
ag2
ag2
ag2
ag2
ag2
ag2
ag2
ag2
ag2
ag2
ag2
ag2
ag2
ag2
ag2
ag2
ag2
ag2
ag2
ag2
ag2
ag2
ag2
ag2
ag2
ag2
ag2
ag2
ag2
ag2
ag2
ag2
ag2
ag2
ag2
ag2
ag2
ag2
ag2
ag2
ag2
ag2
ag2
ag2
ag2
ag2
ag2
ag2
ag2
ag2
ag2
ag2
ag2
ag2
ag2
ag2
ag2
ag2
ag2
ag2
ag2
ag2
ag2
ag2
ag2
ag2
ag2
ag2
ag2
ag2
ag2
ag2
ag2
ag2
ag2
ag2
ag2
ag3
ag3
ag3
ag3
ag2
ag2
ag2
ag2
ag2
ag2
ag2
ag2
ag2
ag2
ag2
ag2
ag3
ag3
ag2
ag2
ag2
ag2
ag2
ag2
ag3
ag3
ag3
ag2
ag2
ag2
ag2
ag2
ag2
ag2
ag2
ag2
ag2
ag2
ag2
ag2
ag2
ag2
ag2
ag2
ag2
ag2
ag2
ag2
ag2
ag2
ag2
ag2
ag2
ag2
ag2
ag2
ag2
ag2
ag2
ag2
ag2
ag2
ag2
ag2
ag2
ag2
ag2
ag2
ag2
ag2
ag2
ag2
ag2
ag2
ag2
ag2
ag2
ag2
ag2
ag2
ag2
ag2
ag2
ag2
ag2
ag2
ag2
ag2
ag2
ag2
ag2
ag2
ag2
ag2
ag2
ag2
ag2
ag2
ag2
ag2
ag2
ag2
ag2
ag2
ag2
ag2
ag2
ag2
ag2
ag2
ag2
ag2
ag2
ag2
ag2
ag2
ag2
ag2
ag2
ag2
ag2
ag2
ag2
ag2
ag2
ag2
ag2
ag2
ag2
ag2
ag2
ag2
ag2
ag2
ag2
ag2
ag2
ag2
ag2
ag2
ag4
ag4
ag3
ag3
ag2
ag2
ag2
ag2
ag2
ag2
ag2
ag2
ag2
ag2
ag4
ag4
ag4
ag4
ag4
ag4
ag4
ag4
ag4
ag4
ag4
ag4
ag4
ag4
ag4
ag4
ag4
ag4
ag4
ag4
ag4
ag4
ag4
ag4
ag4
ag4
ag4
ag4
ag4
ag4
ag4
ag4
ag4
ag4
ag4
ag4
ag4
ag4
ag4
ag4
ag4
ag4
aS'rightArm'
p14
ag14
ag14
ag14
ag6
ag6
ag6
ag6
ag14
ag4
ag4
ag14
ag4
ag4
ag4
ag4
ag4
ag4
ag4
ag4
ag4
ag4
ag4
ag4
ag4
ag4
ag4
ag4
ag6
ag6
ag6
ag6
ag4
ag4
ag4
ag4
ag6
ag6
ag6
ag6
ag4
ag4
ag4
ag4
ag4
ag4
ag4
ag4
ag4
ag4
ag6
ag6
ag6
ag6
ag14
ag4
ag4
ag14
ag4
ag4
ag4
ag4
ag4
ag4
ag4
ag4
ag4
ag4
ag4
ag4
ag4
ag4
ag4
ag4
ag4
ag4
ag4
ag4
ag4
ag6
ag4
ag4
ag4
ag4
ag4
ag4
ag4
ag4
ag4
ag4
ag14
ag14
ag14
ag14
ag6
ag6
ag4
ag4
ag4
ag4
ag4
ag4
ag4
ag4
ag4
ag4
ag4
ag4
ag4
ag4
ag4
ag4
ag4
ag4
ag4
ag4
ag4
ag4
ag4
ag4
ag4
ag4
ag4
ag4
ag4
ag4
ag4
ag4
ag4
ag4
ag4
ag4
ag4
ag4
ag4
ag4
ag4
ag4
ag4
ag6
ag6
ag4
ag4
ag14
ag14
ag14
ag14
ag14
ag14
ag14
ag14
ag14
ag14
ag14
ag14
ag4
ag4
ag4
ag14
ag14
ag14
ag14
ag14
ag14
ag14
ag14
ag14
ag14
ag4
ag4
ag6
ag6
ag6
ag6
ag6
ag6
ag6
ag4
ag4
ag4
ag4
ag6
ag6
ag6
ag6
ag4
ag4
ag4
ag4
ag6
ag6
ag4
ag4
ag4
ag4
ag4
ag6
ag6
ag4
ag3
ag3
ag3
ag6
ag6
ag6
ag6
ag9
ag9
ag6
ag6
ag6
ag6
ag6
ag6
ag6
ag6
ag6
ag6
ag6
ag9
ag9
ag9
ag9
ag9
ag9
ag9
ag9
ag6
ag6
ag6
ag6
ag6
ag6
ag6
ag6
ag6
ag6
ag6
ag6
ag6
ag6
ag6
ag9
ag9
ag9
ag9
ag9
ag9
ag9
ag9
ag9
ag9
ag9
ag9
ag6
ag6
ag6
ag6
ag6
ag6
ag6
ag6
ag6
ag4
ag4
ag4
ag4
ag4
ag4
ag9
ag9
ag9
ag9
ag9
ag9
ag9
ag9
ag9
ag9
ag9
ag9
ag9
ag9
ag9
ag6
ag6
ag9
ag9
ag6
ag6
ag6
ag6
ag6
ag6
ag6
ag6
ag6
ag4
ag4
ag4
ag4
ag4
ag4
ag4
ag6
ag9
ag9
ag9
ag9
ag6
ag6
ag6
ag4
ag4
ag4
ag4
ag9
ag9
ag9
ag9
ag9
ag9
ag9
ag9
ag9
ag9
ag9
ag9
ag9
ag9
ag9
ag9
ag9
ag9
ag9
ag9
ag9
ag9
ag9
ag9
ag9
ag9
ag9
ag9
ag9
ag9
ag9
ag9
ag9
ag9
ag9
ag9
ag9
ag9
ag9
ag9
ag9
ag9
ag9
ag9
ag9
ag9
ag9
ag9
ag9
ag9
ag9
aS'rightThigh'
p15
ag15
ag9
ag9
ag15
ag15
ag9
ag9
ag9
ag9
ag15
ag15
ag15
ag9
ag15
ag9
ag9
ag15
ag9
ag15
ag15
ag9
ag9
ag9
ag15
ag15
ag9
ag9
ag9
ag9
ag9
ag9
ag9
ag9
ag9
ag9
ag9
ag9
ag9
ag9
ag9
ag9
ag9
ag9
ag9
ag9
ag9
ag9
ag15
ag9
ag9
ag15
ag15
ag15
ag15
ag15
ag15
ag15
ag15
ag15
ag15
ag15
ag15
ag15
ag15
ag15
ag15
ag15
ag15
ag15
ag15
ag15
ag15
ag15
ag15
ag15
ag15
ag15
ag15
ag15
ag15
ag15
ag15
ag15
ag15
ag15
ag15
ag15
ag15
ag15
ag15
ag15
ag15
ag15
ag15
ag15
ag15
ag15
ag15
ag15
ag15
ag15
ag15
ag15
ag15
ag15
ag15
ag15
ag15
ag15
ag15
ag15
ag15
ag15
ag15
ag15
ag15
ag15
ag15
ag15
ag15
ag15
ag15
ag15
ag15
ag15
ag15
ag15
ag15
ag15
ag15
ag15
ag15
ag15
ag15
ag15
ag15
ag15
ag15
ag15
ag15
ag15
ag9
ag9
ag9
ag9
ag9
ag9
ag9
ag9
ag9
ag9
ag9
ag15
ag15
ag15
ag15
ag15
ag15
ag15
ag15
ag15
ag15
ag15
ag9
ag9
ag9
ag9
ag9
ag9
ag9
ag9
ag9
ag9
ag9
ag9
ag9
ag9
ag9
ag9
ag15
ag15
ag15
ag15
ag15
ag15
ag15
ag15
ag15
ag9
ag9
ag9
ag9
ag6
ag6
ag4
ag4
ag4
ag4
ag4
ag4
ag4
ag4
ag4
ag4
ag4
ag4
ag4
ag6
ag6
ag6
ag6
ag6
ag6
ag4
ag4
ag4
ag4
ag4
ag4
ag4
ag4
ag4
ag9
ag9
ag9
ag9
ag9
ag9
ag9
ag9
ag9
ag9
ag14
ag14
ag14
ag14
ag4
ag4
ag4
ag4
ag4
ag4
ag4
ag4
ag4
ag4
ag4
ag6
ag6
ag6
ag6
ag6
ag6
ag4
ag4
ag4
ag4
ag4
ag4
ag14
ag14
ag14
ag14
ag9
ag9
ag6
ag6
ag6
ag6
ag4
ag4
ag4
ag4
ag4
ag14
ag9
ag9
ag9
ag9
ag3
ag3
ag14
ag14
ag4
ag4
ag4
ag4
ag4
ag4
ag4
ag4
ag4
ag4
ag4
ag4
ag4
ag4
ag4
ag4
ag4
ag4
ag4
ag4
ag4
ag4
ag3
ag4
ag4
ag14
ag14
ag3
ag3
ag14
ag14
ag4
ag4
ag4
ag3
ag3
ag9
ag9
ag6
ag6
ag6
ag6
ag3
ag6
ag6
ag6
ag6
ag6
ag6
ag6
ag6
ag14
ag14
ag14
ag14
ag6
ag6
ag4
ag4
ag4
ag4
ag4
ag4
ag4
ag9
ag14
ag14
ag14
ag14
ag9
ag9
ag9
ag9
ag9
ag9
ag9
ag9
ag15
ag15
ag15
ag15
ag15
ag15
ag15
ag14
ag14
ag14
ag14
ag14
ag14
ag14
ag14
ag14
ag14
ag14
ag14
ag14
ag14
ag14
ag14
ag14
ag14
ag14
ag14
ag14
ag14
ag14
ag14
ag14
ag4
ag14
ag14
ag14
ag14
ag14
ag14
ag14
ag14
ag14
ag14
ag14
ag14
ag14
ag14
ag14
ag4
ag4
ag4
ag4
ag4
ag4
ag4
ag4
ag4
ag4
ag4
ag14
ag14
ag14
ag14
ag14
ag14
ag4
ag4
ag4
ag4
ag14
ag14
ag14
ag14
ag14
ag14
ag14
ag14
ag6
ag6
ag6
ag6
ag6
ag9
ag9
ag9
ag6
ag9
ag9
ag9
ag9
ag9
ag9
ag9
ag9
ag9
ag15
ag15
ag15
ag15
ag15
ag15
ag15
ag15
ag15
ag15
ag15
ag9
ag9
ag9
ag9
ag9
ag6
ag6
ag6
ag6
ag6
ag6
ag6
ag6
ag6
ag6
ag6
ag6
ag6
ag6
ag6
ag6
ag6
ag9
ag9
ag9
ag9
ag14
ag4
ag4
ag14
ag14
ag14
ag14
ag14
ag14
ag6
ag6
ag9
ag9
ag9
ag9
ag9
ag9
ag9
ag9
ag15
ag15
ag15
ag15
ag15
ag15
ag15
ag15
ag15
ag15
ag15
ag9
ag9
ag4
ag4
ag4
ag14
ag14
ag14
ag14
ag4
ag14
ag14
ag14
ag14
ag14
ag14
ag14
ag14
ag14
ag14
ag14
ag14
ag14
ag14
ag14
ag14
ag14
ag14
ag14
ag14
ag14
ag14
ag14
ag14
ag14
ag14
ag14
ag14
ag14
ag14
ag14
ag14
ag14
ag14
ag14
ag14
ag14
ag14
ag14
ag14
ag14
ag14
ag14
ag14
ag14
ag14
ag14
ag14
ag14
ag14
ag14
ag14
ag14
ag14
ag14
ag14
ag14
ag14
ag14
ag14
ag14
ag14
ag14
ag14
ag14
ag14
ag14
ag14
ag14
ag14
ag14
ag14
ag14
ag14
ag14
ag14
ag14
ag14
ag14
ag14
ag14
ag14
ag14
ag14
ag14
ag14
ag14
ag14
ag14
ag14
ag14
ag14
ag14
ag14
ag14
ag14
ag14
ag14
ag14
ag14
ag14
ag14
ag14
ag14
ag14
ag14
ag14
ag14
ag14
ag14
ag14
ag14
ag14
ag14
ag14
ag14
ag14
ag14
ag14
ag14
ag14
ag14
ag14
ag14
ag14
ag14
ag14
ag14
ag14
ag14
ag14
ag14
ag14
ag14
ag14
ag14
ag14
ag14
ag14
ag14
ag14
ag14
ag14
ag14
ag14
ag14
ag14
ag14
ag14
ag14
ag14
ag14
ag14
ag14
ag14
ag14
ag14
ag14
ag14
ag14
ag14
ag14
ag14
ag14
ag14
ag14
ag14
ag14
ag14
ag14
ag14
ag14
ag14
ag14
ag14
ag14
ag14
ag14
ag14
ag14
ag14
ag14
ag14
ag14
ag14
ag14
ag14
ag14
ag14
ag14
ag14
ag14
ag14
ag14
ag14
ag14
ag14
ag14
ag14
ag14
ag14
ag14
ag14
ag14
ag14
ag14
ag14
ag14
ag4
ag4
ag4
ag4
ag4
ag4
ag4
ag14
ag4
ag2
ag2
ag2
ag6
ag2
ag2
ag2
ag2
ag2
ag2
ag2
ag2
ag2
ag6
ag6
ag6
ag6
ag6
ag6
ag6
ag6
ag6
ag6
ag6
ag6
ag6
ag6
ag6
ag6
ag6
ag6
ag6
ag6
ag6
ag6
ag6
ag6
ag6
ag4
ag4
ag4
ag4
ag4
ag4
ag4
ag4
ag4
ag4
ag4
ag4
ag4
ag4
ag4
ag4
ag4
ag4
ag4
ag4
ag4
ag4
ag4
ag14
ag14
ag4
ag4
ag4
ag4
ag4
ag4
ag4
ag4
ag4
ag14
ag14
ag4
ag14
ag14
ag14
ag14
ag4
ag14
ag4
ag4
ag14
ag14
ag4
ag4
ag14
ag14
ag4
ag14
ag4
ag4
ag4
ag4
ag14
ag14
ag14
ag14
ag14
ag14
ag14
ag4
ag4
ag14
ag14
ag14
ag14
ag14
ag4
ag14
ag4
ag14
ag14
ag4
ag4
ag4
ag4
ag14
ag14
ag4
ag4
ag14
ag4
ag4
ag4
ag4
ag4
ag4
ag4
ag14
ag14
ag14
ag14
ag14
ag2
ag2
ag2
ag2
ag14
ag14
ag14
ag14
ag14
ag14
ag14
ag14
ag14
ag14
ag14
ag14
ag14
ag14
ag14
ag14
ag14
ag14
ag14
ag14
ag14
ag14
ag14
ag14
ag14
ag14
ag14
ag14
ag14
ag14
ag14
ag14
ag14
ag14
ag14
ag14
ag14
ag14
ag14
ag14
ag14
ag14
ag14
ag14
ag14
ag14
ag14
ag14
ag14
ag14
ag14
ag14
ag14
ag14
ag14
ag14
ag14
ag14
ag14
ag14
ag14
ag14
ag14
ag14
ag14
ag14
ag14
ag14
ag14
ag14
ag14
ag14
aS'rightHand'
p16
ag16
ag16
ag16
ag16
ag16
ag16
ag16
ag16
ag16
ag16
ag16
ag16
ag16
ag16
ag16
ag16
ag16
ag16
ag16
ag16
ag16
ag16
ag16
ag16
ag16
ag16
ag16
ag16
ag16
ag16
ag16
ag16
ag16
ag16
ag16
ag16
ag16
ag16
ag16
ag16
ag16
ag16
ag16
ag16
ag16
aS'rightHand'
p17
ag17
ag17
ag17
ag16
ag16
ag16
ag16
ag16
ag16
ag17
ag17
ag17
ag17
ag16
ag16
ag16
ag16
ag16
ag16
ag16
ag16
ag16
ag16
ag16
ag16
ag16
ag16
ag17
ag17
ag17
ag17
ag16
ag16
ag16
ag16
ag16
ag16
ag16
ag16
ag17
ag17
ag16
ag16
ag16
ag16
ag16
ag16
ag16
ag16
ag16
ag16
ag16
ag16
ag16
ag16
ag16
ag16
ag16
ag16
ag16
ag16
ag16
ag16
ag16
ag16
ag16
ag16
ag16
ag16
ag16
ag16
ag16
ag16
ag16
ag14
ag14
ag14
ag14
ag14
ag14
ag16
ag14
ag16
ag14
ag14
ag16
ag16
ag16
ag16
ag16
ag16
ag16
ag16
ag16
ag16
ag17
ag17
ag17
ag17
ag17
ag17
ag17
ag17
ag17
ag17
ag17
ag17
ag16
ag16
ag16
ag16
ag16
ag17
ag17
ag16
ag16
ag16
ag17
ag17
ag14
ag14
ag16
ag16
ag16
ag17
ag17
ag17
ag17
ag17
ag17
ag17
ag17
ag17
ag16
ag17
ag17
ag17
ag17
ag17
ag17
ag17
ag17
ag16
ag16
ag16
ag16
ag16
ag17
ag16
ag17
ag17
ag17
ag16
ag17
ag16
ag16
ag16
ag16
ag17
ag17
ag17
ag17
ag17
ag17
ag16
ag17
ag16
ag16
ag16
ag16
ag17
ag16
ag16
ag16
ag16
ag16
ag17
ag17
ag16
ag14
ag14
ag16
ag16
ag16
ag16
ag16
ag17
ag17
ag17
ag17
ag17
ag17
ag17
ag16
ag17
ag16
ag16
ag16
ag16
ag16
ag16
ag16
ag14
ag16
ag17
ag17
ag16
ag14
ag16
ag16
ag16
ag16
ag16
ag14
ag14
ag14
ag14
ag17
ag17
ag17
ag16
ag16
ag16
ag16
ag16
ag16
ag16
ag16
ag16
ag16
ag17
ag17
ag17
ag17
ag17
ag17
ag16
ag16
ag16
ag16
ag16
ag17
ag17
ag17
ag17
ag17
ag17
ag16
ag17
ag17
ag16
ag16
ag17
ag17
ag17
ag17
ag16
ag16
ag14
ag16
ag16
ag17
ag17
ag17
ag17
ag17
ag17
ag17
ag17
ag17
ag17
ag17
ag17
ag17
ag17
ag17
ag17
ag17
ag17
ag17
ag17
ag17
ag17
ag17
ag17
ag17
ag17
ag17
ag17
ag17
ag17
ag17
ag17
ag17
ag17
ag17
ag17
ag17
ag17
ag17
ag17
ag17
ag17
ag17
ag17
ag17
ag17
ag17
ag17
ag17
ag17
ag17
ag17
ag17
ag17
ag17
ag17
ag17
ag17
ag17
ag17
ag17
ag17
ag17
ag17
ag17
ag17
ag17
ag17
ag17
ag17
ag17
ag17
ag17
ag17
ag17
ag17
ag17
ag17
ag17
ag17
ag17
ag17
ag17
ag17
ag17
ag17
ag17
ag17
ag17
ag17
ag17
ag17
ag17
ag17
ag17
ag17
ag17
ag17
ag17
ag17
ag17
ag17
ag17
ag17
ag17
ag17
ag17
ag17
ag17
ag17
ag17
ag17
ag17
ag17
ag17
ag17
ag17
ag17
ag17
ag17
ag17
ag17
ag17
ag17
ag17
ag17
ag17
ag17
ag17
ag17
ag17
ag17
ag17
ag17
ag17
ag17
ag17
ag17
ag17
ag17
ag17
ag17
ag17
ag17
ag17
ag17
ag17
ag17
ag17
ag17
ag17
ag17
ag17
ag17
ag17
ag17
ag17
ag17
ag17
ag17
ag17
ag17
ag17
ag17
ag17
ag17
ag17
ag17
ag17
ag17
ag17
ag17
ag17
ag17
ag17
ag17
ag17
ag17
ag17
ag17
ag17
ag17
ag17
ag17
ag17
ag17
ag17
ag17
ag17
ag17
ag17
ag17
ag17
ag17
ag17
ag17
ag17
ag17
ag17
ag17
ag17
ag17
ag17
ag17
ag17
ag17
ag17
ag17
ag17
ag17
ag17
ag17
ag17
ag17
ag17
ag17
ag17
ag17
ag17
ag17
ag17
ag17
ag17
ag17
ag17
ag17
ag17
ag17
ag17
ag17
ag17
ag17
ag17
ag17
ag17
ag17
ag17
ag17
ag17
ag17
ag17
ag17
ag17
ag17
ag17
ag17
ag17
ag17
ag17
ag17
ag17
ag17
ag17
ag17
ag17
ag17
ag17
ag17
ag17
ag17
ag17
ag17
ag17
ag17
ag17
ag17
ag17
ag17
ag17
ag17
ag17
ag17
ag17
ag17
ag17
ag17
ag17
ag17
ag17
ag17
ag17
ag17
ag17
ag17
ag17
ag17
ag17
ag17
ag17
ag17
ag17
ag17
ag17
ag17
ag17
ag17
ag17
ag17
ag17
ag17
ag17
ag17
ag17
ag17
ag17
ag17
ag17
ag17
ag17
ag17
ag17
ag17
ag17
ag17
ag17
ag17
ag17
ag17
ag17
ag17
ag17
ag17
ag17
ag17
ag17
ag17
ag17
ag17
ag17
ag17
ag17
ag17
ag17
ag17
ag17
ag17
ag17
ag17
ag17
ag17
ag17
ag17
ag17
ag17
ag17
ag17
ag17
ag17
ag17
ag17
ag17
ag17
ag17
ag17
ag17
ag17
ag17
ag17
ag17
ag17
ag17
ag17
ag17
ag17
ag17
ag17
ag17
ag17
ag17
ag17
ag17
ag17
ag17
ag17
ag17
ag17
ag17
ag17
ag17
ag17
ag17
ag17
ag17
ag17
ag17
ag17
ag17
ag17
ag17
ag17
ag17
ag17
ag17
ag17
ag17
ag17
ag17
ag17
ag17
ag17
ag17
ag17
ag17
ag17
ag17
ag17
ag17
ag17
ag17
ag16
ag16
ag16
ag16
ag16
ag16
ag16
ag16
ag16
ag16
ag16
ag16
ag16
ag16
ag16
ag16
ag16
ag16
ag16
ag16
ag16
ag16
ag16
ag16
ag16
ag16
ag16
ag16
ag16
ag16
ag16
ag16
ag16
ag16
ag16
ag16
ag16
ag16
ag16
ag16
ag16
ag16
ag16
ag16
ag16
ag16
ag16
ag16
ag16
ag16
ag16
ag16
ag16
ag16
ag16
ag16
ag16
ag16
ag16
ag16
ag16
ag16
ag16
ag16
ag16
ag16
ag16
ag16
ag16
ag16
ag16
ag16
ag16
ag17
ag16
ag16
ag16
ag16
ag16
ag16
ag16
ag2
ag2
ag2
ag2
ag2
ag2
ag2
ag2
ag2
ag2
ag2
ag2
ag2
ag2
ag2
ag2
ag2
ag2
ag2
ag2
ag2
ag2
ag2
ag2
ag2
ag2
ag2
ag2
ag2
ag2
ag2
ag2
ag2
ag4
ag4
ag2
ag2
ag2
ag2
ag2
ag14
ag14
ag14
ag14
ag6
ag6
ag6
ag6
ag6
ag6
ag6
ag6
ag6
ag6
ag6
ag6
ag6
ag6
ag6
ag6
ag4
ag4
ag4
ag4
ag4
ag4
ag4
ag4
ag4
ag6
ag4
ag4
ag4
ag4
ag4
ag4
ag4
ag4
ag4
ag4
ag4
ag4
ag4
ag4
ag4
ag4
ag4
ag4
ag4
ag4
ag4
ag4
ag4
ag4
ag14
ag14
ag4
ag4
ag4
ag4
ag4
ag4
ag4
ag4
ag4
ag4
ag4
ag4
ag4
ag4
ag4
ag4
ag4
ag4
ag14
ag14
ag14
ag14
ag14
ag14
ag14
ag14
ag14
ag4
ag4
ag4
ag4
ag4
ag6
ag6
ag6
ag6
ag6
ag6
ag6
ag6
ag6
ag6
ag6
ag6
ag6
ag6
ag6
ag6
ag6
ag6
ag6
ag6
ag6
ag6
ag4
ag4
ag4
ag4
ag4
ag4
ag4
ag4
ag4
ag4
ag4
ag4
ag4
ag4
ag14
ag14
ag4
ag4
ag4
ag4
ag4
ag4
ag4
ag4
ag4
ag4
ag4
ag4
ag4
ag4
ag4
ag4
ag4
ag4
ag4
ag4
ag4
ag4
ag4
ag4
ag4
ag4
ag4
ag14
ag14
ag14
ag14
ag14
ag14
ag14
ag14
ag14
ag14
ag14
ag14
ag14
ag14
ag14
ag14
ag14
ag14
ag14
ag14
ag14
ag14
ag14
ag4
ag4
ag4
ag4
ag4
ag14
ag4
ag4
ag4
ag4
ag4
ag4
ag4
ag4
ag4
ag14
ag6
ag6
ag6
ag4
ag4
ag4
ag4
ag4
ag4
ag4
ag4
ag4
ag4
ag4
ag4
ag4
ag4
ag4
ag4
ag4
ag2
ag2
ag2
ag2
ag4
ag4
ag4
ag4
ag4
ag4
ag4
ag4
ag6
ag6
ag6
ag6
ag6
ag6
ag6
ag6
ag6
ag6
ag6
ag6
ag6
ag6
ag6
ag6
ag6
ag6
ag6
ag6
ag6
ag6
ag6
ag6
ag6
ag6
ag6
ag6
ag6
ag6
ag6
ag6
ag6
ag6
ag6
ag6
ag6
ag6
ag6
ag6
ag6
ag6
ag9
ag9
ag9
ag9
ag6
ag6
ag9
ag9
ag9
ag9
ag9
ag6
ag6
ag6
ag6
ag6
ag6
ag6
ag6
ag6
ag6
ag6
ag6
ag6
ag6
ag6
ag6
ag6
ag15
ag15
ag15
ag15
ag15
ag15
ag15
ag15
ag15
ag15
ag15
ag15
ag15
ag15
ag15
ag15
ag15
ag15
ag15
ag15
ag15
ag15
ag15
ag15
ag15
ag15
ag15
ag15
ag15
ag15
ag15
ag15
ag15
ag15
ag15
ag15
ag15
aS'rightFoot'
p18
ag18
ag18
ag18
ag18
ag18
ag18
ag18
ag18
ag18
ag18
ag18
ag18
ag18
ag18
ag18
ag18
ag18
ag18
ag18
ag18
ag18
ag18
ag18
ag18
ag18
ag18
ag18
ag18
ag18
ag18
ag18
ag18
ag18
ag18
ag18
ag18
ag18
ag18
ag18
ag18
ag18
ag18
ag18
ag18
ag18
ag18
ag18
ag18
ag18
ag18
ag18
ag18
ag18
ag18
ag18
ag18
ag18
ag18
ag18
ag18
ag18
ag18
ag18
ag18
ag18
ag18
ag18
ag18
ag18
ag18
ag18
ag18
ag18
ag18
ag18
ag18
ag18
ag18
ag18
ag18
ag18
ag18
ag18
ag18
ag18
ag18
ag18
ag18
ag18
ag18
ag18
ag18
ag18
ag18
ag18
ag18
ag18
ag18
ag18
ag18
ag18
ag18
ag18
ag18
ag18
ag18
ag18
ag15
ag15
ag15
ag15
ag15
aS'rightFoot'
p19
ag15
ag19
ag19
ag19
ag19
ag19
ag19
ag19
ag19
ag19
ag19
ag18
ag18
ag18
ag18
ag18
ag18
ag18
ag18
ag19
ag18
ag19
ag18
ag19
ag19
ag18
ag19
ag18
ag18
ag18
ag18
ag19
ag18
ag18
ag18
ag18
ag18
ag18
ag19
ag19
ag19
ag19
ag19
ag19
ag19
ag19
ag19
ag19
ag19
ag19
ag19
ag19
ag19
ag19
ag19
ag19
ag19
ag19
ag19
ag19
ag19
ag19
ag19
ag19
ag19
ag19
ag19
ag19
ag19
ag19
ag19
ag19
ag19
ag19
ag19
ag19
ag19
ag19
ag19
ag19
ag19
ag19
ag19
ag19
ag19
ag19
ag19
ag19
ag19
ag19
ag19
ag19
ag19
ag19
ag19
ag19
ag19
ag19
ag19
ag19
ag19
ag19
ag19
ag19
ag19
ag19
ag19
ag19
ag19
ag19
ag19
ag19
ag19
ag19
ag19
ag19
ag19
ag19
ag19
ag19
ag19
ag19
ag19
ag19
ag19
ag19
ag19
ag19
ag19
ag19
ag19
ag19
ag19
ag19
ag19
ag19
ag19
ag19
ag19
ag19
ag19
ag19
ag19
ag19
ag19
ag15
ag15
ag15
ag9
ag6
ag6
ag6
ag9
ag4
ag4
ag2
ag2
ag2
ag2
ag2
ag2
ag2
ag2
ag2
ag2
a.