(lp0
S'head'
p1
ag1
ag1
ag1
ag1
ag1
ag1
ag1
ag1
ag1
ag1
ag1
ag1
ag1
ag1
ag1
ag1
ag1
ag1
ag1
ag1
ag1
ag1
ag1
ag1
ag1
ag1
ag1
ag1
ag1
ag1
ag1
ag1
ag1
ag1
ag1
ag1
ag1
ag1
ag1
ag1
ag1
ag1
ag1
ag1
ag1
ag1
ag1
ag1
ag1
ag1
ag1
ag1
ag1
ag1
ag1
ag1
ag1
ag1
ag1
ag1
ag1
ag1
ag1
ag1
ag1
ag1
ag1
ag1
ag1
ag1
ag1
ag1
ag1
ag1
ag1
ag1
ag1
ag1
ag1
ag1
ag1
ag1
ag1
ag1
ag1
ag1
ag1
ag1
ag1
ag1
ag1
ag1
ag1
ag1
ag1
ag1
ag1
ag1
ag1
ag1
ag1
ag1
ag1
ag1
ag1
ag1
ag1
ag1
ag1
ag1
ag1
ag1
ag1
ag1
ag1
ag1
ag1
ag1
ag1
ag1
ag1
ag1
ag1
ag1
ag1
ag1
ag1
ag1
ag1
ag1
ag1
ag1
ag1
ag1
ag1
ag1
ag1
ag1
ag1
ag1
ag1
ag1
ag1
ag1
ag1
ag1
ag1
ag1
ag1
aS'neck'
p2
ag2
ag2
ag2
ag1
ag1
ag1
ag1
ag1
ag1
ag1
ag1
ag1
ag1
ag1
ag1
ag1
ag1
ag1
ag1
ag1
ag1
ag1
ag1
ag1
ag1
ag1
ag1
ag1
ag1
ag1
ag1
ag1
ag1
ag1
ag1
ag1
ag1
ag1
ag1
ag1
ag1
ag1
ag1
ag1
ag1
ag1
ag1
ag1
ag1
ag1
ag1
ag1
ag1
ag1
ag1
ag2
ag2
ag2
ag2
ag2
ag2
ag2
ag2
ag2
ag2
ag2
ag2
ag2
ag2
ag1
ag1
ag2
ag2
ag2
ag1
ag1
ag1
ag1
ag1
ag1
ag1
ag1
ag1
ag1
ag1
ag1
ag1
ag1
ag1
ag1
ag1
ag1
ag1
ag1
ag1
ag1
ag1
ag1
ag1
ag1
ag1
ag1
ag1
ag1
ag1
ag2
ag2
ag1
ag1
ag1
ag1
ag1
ag1
ag1
ag1
ag1
ag1
ag1
ag1
ag1
ag1
ag1
ag1
ag1
ag1
ag1
ag1
ag1
ag1
ag1
ag1
ag1
ag1
ag2
ag2
ag1
ag1
ag1
ag1
ag1
ag1
ag1
ag1
ag1
ag1
ag2
ag2
ag2
ag2
ag2
ag2
ag1
ag1
ag1
ag1
ag1
ag1
ag2
ag2
ag1
ag1
ag1
ag1
ag1
ag1
ag1
ag1
ag1
ag1
ag1
ag1
ag1
ag1
ag1
ag1
ag1
ag1
ag1
ag1
ag1
ag1
ag1
ag2
ag2
ag1
ag1
ag1
ag1
ag1
ag1
ag1
ag1
ag1
ag1
ag1
ag1
ag1
ag1
ag1
ag1
ag1
ag1
ag1
ag1
ag1
ag1
ag1
ag1
ag1
ag1
ag1
ag1
ag1
ag1
ag1
ag1
ag1
ag1
ag1
ag1
ag1
ag1
ag1
ag1
ag1
ag1
ag1
ag1
ag1
ag1
ag1
ag1
ag1
ag1
ag1
ag1
ag1
ag1
ag1
ag1
ag1
ag1
ag1
ag1
ag1
ag1
ag1
ag1
ag1
ag1
ag1
ag1
ag1
ag1
ag1
ag1
ag1
ag1
ag1
ag1
ag1
ag1
ag1
ag1
ag1
ag1
ag1
ag1
ag1
ag1
ag1
ag1
ag2
ag2
ag2
ag2
ag1
ag1
ag1
ag1
ag1
ag1
ag1
ag1
ag1
ag1
ag1
ag1
ag1
ag2
ag2
ag1
ag1
ag1
ag1
ag1
ag1
ag1
ag1
ag1
ag2
ag2
ag2
ag1
ag1
ag1
ag1
ag1
ag1
ag2
ag1
ag1
ag1
ag1
ag1
ag1
ag1
ag1
ag1
ag1
ag1
ag1
ag1
ag1
ag1
ag1
ag1
ag1
ag1
ag1
ag1
ag1
ag1
ag1
ag1
ag1
ag1
ag1
ag1
ag1
ag1
ag1
ag1
ag1
ag1
ag1
ag1
ag1
ag1
ag1
ag1
ag1
ag1
ag1
ag1
ag1
ag1
ag1
ag1
ag1
ag1
ag1
ag1
ag1
ag1
ag1
ag1
ag1
ag1
ag1
ag1
ag1
ag1
ag1
ag1
ag1
ag1
ag1
ag1
ag1
ag1
ag1
ag1
ag1
ag1
ag1
ag1
ag1
ag1
ag1
ag1
ag1
ag1
ag1
ag1
ag1
ag1
ag1
ag1
ag1
ag1
ag1
ag1
ag1
ag1
ag1
ag1
ag1
ag1
ag1
ag1
ag1
ag1
ag1
ag1
ag1
ag1
ag1
ag1
aS'spine2'
p3
ag2
ag2
ag3
ag1
ag1
ag1
ag1
ag1
ag1
ag1
ag1
ag1
ag1
ag3
ag3
ag3
ag3
ag3
ag3
ag3
ag3
ag3
ag3
ag3
ag3
ag3
ag3
aS'spine1'
p4
ag4
ag4
ag4
ag3
ag3
aS'leftShoulder'
p5
ag5
ag5
ag3
ag3
ag5
ag3
ag3
ag3
ag4
ag4
ag4
ag4
ag4
ag4
ag4
ag4
ag4
ag3
ag3
ag3
ag3
aS'leftUpperArm'
p6
ag6
ag6
ag6
aS'spine'
p7
ag7
ag7
ag7
ag6
ag6
ag5
ag5
ag3
ag3
ag3
ag3
ag3
ag3
ag3
ag3
ag4
ag4
ag3
ag3
ag3
ag3
ag4
ag4
ag7
ag7
ag7
ag7
ag4
ag4
ag4
ag4
ag7
ag7
ag7
ag7
ag3
ag3
ag4
ag4
ag4
ag4
ag3
ag3
ag3
ag3
aS'global'
p8
ag8
ag8
ag8
ag6
ag6
ag3
ag3
ag4
ag4
ag4
ag4
ag4
ag4
ag4
ag4
ag4
ag3
ag3
ag3
ag3
ag3
ag3
ag3
ag3
ag3
ag3
ag3
ag3
ag8
ag5
ag5
ag5
ag5
ag5
ag5
ag5
ag3
ag3
ag5
ag6
ag6
ag6
ag6
ag7
ag7
ag4
ag3
ag3
ag4
ag3
ag3
ag3
ag3
ag3
ag3
ag3
ag5
ag5
ag3
ag3
ag3
ag3
ag3
ag3
ag3
ag3
ag3
ag3
ag3
ag3
ag3
ag3
ag3
ag3
ag3
ag3
ag3
ag3
ag3
ag3
ag3
ag3
ag3
ag3
ag3
ag3
ag3
ag3
ag7
ag4
ag4
ag7
ag6
ag6
ag6
ag6
ag6
ag6
ag6
ag6
ag6
ag6
ag6
ag6
ag5
ag5
ag5
ag6
ag6
ag6
ag6
ag6
ag6
ag6
ag6
ag6
ag6
ag4
ag4
ag7
ag7
ag7
ag7
ag8
ag8
ag8
ag3
ag3
ag3
ag3
ag8
ag8
ag8
ag8
ag3
ag3
ag3
ag3
ag8
ag8
ag3
ag3
ag3
ag3
ag3
ag8
ag8
ag3
ag2
ag2
ag2
ag2
ag2
ag8
ag8
ag8
aS'leftThigh'
p9
ag9
ag8
ag8
ag8
ag8
ag8
ag8
ag8
ag8
ag8
ag8
ag8
ag8
ag9
ag9
ag9
ag9
ag9
ag9
ag9
ag9
ag8
ag8
ag8
ag8
ag8
ag8
ag8
ag8
ag8
ag8
ag8
ag8
ag8
ag8
ag8
ag9
ag9
ag9
ag9
ag9
ag9
ag9
ag9
ag9
ag9
ag9
ag9
ag8
ag8
ag8
ag8
ag8
ag8
ag8
ag7
ag7
ag4
ag3
ag4
ag4
ag3
ag3
ag9
ag9
ag9
ag9
ag9
ag9
ag9
ag9
ag9
ag9
ag9
ag9
ag9
ag9
ag9
ag8
ag9
ag9
ag8
ag7
ag7
ag7
ag7
ag8
ag7
ag7
ag7
ag7
ag4
ag4
ag4
ag4
ag4
ag3
ag3
ag8
ag9
ag9
ag9
ag9
ag8
ag8
ag8
ag4
ag4
ag4
ag3
ag9
ag9
ag9
ag9
ag9
ag9
ag9
ag9
ag9
ag9
ag9
ag9
ag9
ag9
ag9
ag9
ag9
ag9
ag9
ag9
ag9
ag9
ag9
ag9
ag9
ag9
ag9
ag9
ag9
ag9
ag9
ag9
ag9
ag9
ag9
ag9
ag9
ag9
ag9
ag9
ag9
ag9
ag9
ag9
ag9
ag9
ag9
ag9
ag9
ag9
ag9
aS'leftCalf'
p10
ag9
ag9
ag10
ag10
ag9
ag9
ag10
ag9
ag10
ag10
ag9
ag9
ag10
ag9
ag10
ag9
ag10
ag9
ag9
ag10
ag10
ag9
ag10
ag10
ag9
ag9
ag9
ag9
ag9
ag9
ag9
ag9
ag9
ag9
ag9
ag9
ag9
ag9
ag9
ag9
ag9
ag9
ag9
ag9
ag9
ag9
ag9
ag10
ag10
ag9
ag9
ag10
ag10
ag10
ag10
ag10
ag10
ag10
ag10
ag10
ag10
ag10
ag10
ag10
ag10
ag10
ag10
ag10
ag10
ag10
ag10
ag10
ag10
ag10
ag10
ag10
ag10
ag10
ag10
ag10
ag10
ag10
ag10
ag10
ag10
ag10
ag10
ag10
ag10
ag10
ag10
ag10
ag10
ag10
ag10
ag10
ag10
ag10
ag10
ag10
ag10
ag10
ag10
ag10
ag10
ag10
ag10
ag10
ag10
ag10
ag10
ag10
ag10
ag10
ag10
ag10
ag10
ag10
ag10
ag10
ag10
ag10
ag10
ag10
ag10
ag10
ag10
ag10
ag10
ag10
ag10
ag10
ag10
ag10
ag10
ag10
ag10
ag10
ag10
ag10
ag10
ag9
ag9
ag9
ag9
ag9
ag9
ag9
ag9
ag9
ag9
ag9
ag10
ag10
ag10
ag10
ag10
ag10
ag10
ag10
ag10
ag10
ag10
ag9
ag9
ag9
ag9
ag9
ag9
ag9
ag9
ag9
ag9
ag9
ag9
ag9
ag9
ag9
ag9
ag10
ag10
ag10
ag10
ag10
ag10
ag10
ag10
ag10
ag9
ag9
ag9
ag9
ag7
ag7
ag4
ag4
ag4
ag4
ag4
ag4
ag4
ag4
ag3
ag3
ag4
ag4
ag4
ag8
ag8
ag8
ag8
ag8
ag8
aS'rightThigh'
p11
ag11
ag7
ag4
ag3
ag3
ag3
ag3
ag3
ag3
ag3
ag3
ag9
ag9
ag9
ag9
ag9
ag9
ag9
ag9
ag9
ag9
ag6
ag6
ag6
ag6
ag3
ag3
ag3
ag5
ag5
ag5
ag5
ag5
ag5
ag5
ag5
ag8
ag8
ag7
ag7
ag7
ag7
ag3
ag3
ag3
ag3
ag3
ag3
ag6
ag6
ag6
ag6
ag9
ag9
ag7
ag7
ag7
ag7
ag4
ag4
ag4
ag6
ag3
ag3
ag9
ag9
ag9
ag9
ag11
ag2
ag2
ag6
ag6
ag3
ag3
ag3
ag3
ag3
ag3
ag3
ag5
ag5
ag3
ag3
ag3
ag3
ag3
ag3
ag3
ag3
ag3
ag3
ag3
ag3
ag3
ag3
ag3
ag2
ag3
ag3
ag6
ag6
ag2
ag2
ag6
ag6
ag5
ag5
ag5
ag2
ag2
ag9
ag9
ag7
ag7
ag7
ag7
ag7
ag7
ag4
ag4
ag2
ag7
ag7
ag7
ag7
ag7
ag8
ag8
ag8
ag6
ag6
ag6
ag6
ag7
ag7
ag3
ag3
ag4
ag3
ag3
ag3
ag3
ag11
ag9
ag6
ag6
ag6
ag6
ag9
ag9
ag9
ag9
ag11
ag11
ag9
ag9
ag9
ag9
ag10
ag10
ag10
ag10
ag10
ag10
ag10
ag6
ag6
ag6
ag6
ag6
ag6
ag6
ag6
ag6
ag6
ag6
ag6
ag6
ag6
ag6
ag6
ag6
ag6
ag6
ag6
ag6
ag6
ag6
ag6
ag6
ag3
ag6
ag6
ag6
ag6
ag6
ag6
ag6
ag6
ag6
ag6
ag6
ag6
ag6
ag6
ag6
ag3
ag3
ag3
ag4
ag4
ag3
ag3
ag4
ag4
ag4
ag3
ag6
ag6
ag6
ag6
ag6
ag6
ag3
ag3
ag3
ag3
ag6
ag6
ag6
ag6
ag6
ag6
ag6
ag6
ag8
ag8
ag8
ag8
ag8
ag9
ag9
ag9
ag8
ag9
ag9
ag9
ag9
ag9
ag9
ag9
ag9
ag9
ag10
ag10
ag10
ag10
ag10
ag10
ag10
ag10
ag10
ag10
ag10
ag9
ag11
ag9
ag9
ag9
ag9
ag7
ag7
ag7
ag7
ag7
ag7
ag7
ag7
ag7
ag7
ag7
ag7
ag7
ag7
ag7
ag7
ag8
ag9
ag9
ag9
ag9
ag6
ag3
ag3
ag6
ag6
ag6
ag6
ag6
ag6
ag8
ag9
ag8
ag9
ag11
ag9
ag9
ag9
ag9
ag9
ag9
ag10
ag10
ag10
ag10
ag10
ag10
ag10
ag10
ag10
ag10
ag10
ag9
ag9
ag5
ag3
ag3
ag6
ag8
ag8
ag6
ag6
ag6
ag3
ag6
aS'leftForeArm'
p12
ag12
ag12
ag12
ag12
ag12
ag12
ag12
ag12
ag12
ag12
ag12
ag12
ag12
ag12
ag12
ag12
ag12
ag12
ag12
ag12
ag12
ag12
ag12
ag12
ag12
ag12
ag12
ag12
ag12
ag12
ag12
ag12
ag12
ag12
ag12
ag12
ag12
ag12
ag12
ag12
ag12
ag12
ag12
ag12
ag12
ag12
ag12
ag12
ag12
ag12
ag12
ag12
ag12
ag12
ag12
ag12
ag12
ag12
ag12
ag12
ag12
ag12
ag12
ag12
ag12
ag12
ag12
ag12
ag12
ag12
ag12
ag12
ag6
ag12
ag12
ag6
ag12
ag12
ag12
ag12
ag12
ag12
ag12
ag12
ag6
ag6
ag6
ag6
ag6
ag6
ag6
ag6
ag6
ag6
ag6
ag6
ag12
ag12
ag6
ag12
ag12
ag6
ag6
ag12
ag12
ag6
ag6
ag12
ag12
ag6
ag12
ag12
ag12
ag12
ag12
ag12
ag12
ag12
ag12
ag12
ag6
ag6
ag6
ag6
ag6
ag6
ag6
ag6
ag6
ag6
ag6
ag6
ag6
ag6
ag6
ag6
ag6
ag6
ag12
ag12
ag12
ag12
ag12
ag12
ag12
ag12
ag12
ag12
ag12
ag6
ag6
ag6
ag12
ag12
ag12
ag12
ag6
ag6
ag6
ag6
ag6
ag6
ag6
ag6
ag6
ag6
ag6
ag6
ag6
ag6
ag6
ag6
ag6
ag6
ag12
ag12
ag12
ag12
ag12
ag12
ag12
ag12
ag12
ag12
ag6
ag12
ag6
ag6
ag6
ag12
ag6
ag12
ag6
ag6
ag12
ag12
ag12
ag12
ag6
ag6
ag6
ag6
ag6
ag12
ag6
ag12
ag3
ag3
ag3
ag4
ag4
ag4
ag3
ag3
ag6
ag3
ag3
ag1
ag1
ag1
ag7
ag8
ag8
ag1
ag1
ag1
ag1
ag1
ag1
ag1
ag1
ag1
ag8
ag8
ag8
ag8
ag8
ag8
ag8
ag8
ag8
ag8
ag8
ag8
ag8
ag8
ag8
ag8
ag8
ag8
ag8
ag8
ag8
ag8
ag8
ag8
ag8
ag8
ag8
ag8
ag8
ag3
ag3
ag5
ag3
ag5
ag5
ag5
ag5
ag3
ag3
ag3
ag3
ag3
ag5
ag5
ag5
ag5
ag5
ag5
ag5
ag5
ag5
ag6
ag6
ag5
ag5
ag3
ag3
ag3
ag5
ag3
ag3
ag5
ag5
ag5
ag5
ag6
ag6
ag6
ag6
ag6
ag5
ag6
ag6
ag5
ag5
ag6
ag6
ag5
ag5
ag6
ag5
ag6
ag5
ag5
ag5
ag5
ag6
ag6
ag6
ag6
ag6
ag6
ag6
ag5
ag5
ag6
ag6
ag6
ag6
ag6
ag3
ag6
ag5
ag6
ag6
ag5
ag5
ag5
ag5
ag6
ag6
ag5
ag5
ag6
ag5
ag5
ag5
ag5
ag5
ag5
ag5
ag12
ag6
ag6
ag6
ag6
ag1
ag1
ag1
ag1
ag12
ag12
ag12
ag12
ag12
ag12
ag12
ag12
ag12
ag12
ag12
ag12
ag12
ag12
ag12
ag12
ag12
ag12
ag12
ag12
ag12
ag12
ag12
ag12
ag12
ag12
ag12
ag12
ag12
ag12
ag12
ag12
ag12
ag12
ag12
ag12
ag12
ag12
ag12
ag12
ag12
ag12
ag12
ag12
ag12
ag12
ag12
ag12
ag12
ag12
ag12
ag12
ag12
ag12
ag12
ag12
ag12
ag12
ag12
ag12
ag12
ag12
ag12
ag12
ag12
ag12
ag12
ag12
ag12
ag12
ag12
ag12
aS'leftHand'
p13
ag13
ag13
ag13
ag13
ag13
ag13
ag13
ag13
ag13
ag13
ag13
ag13
ag13
ag13
ag13
ag13
ag13
ag13
ag13
ag13
ag13
ag13
ag13
ag13
ag13
ag13
ag13
ag13
ag13
ag13
ag13
ag13
ag13
ag13
ag13
ag13
ag13
ag13
ag13
ag13
ag13
ag13
ag13
ag13
ag13
aS'leftFingers'
p14
ag14
ag14
ag14
ag13
ag13
ag13
ag13
ag13
ag13
ag14
ag14
ag14
ag14
ag13
ag13
ag13
ag13
ag13
ag13
ag13
ag13
ag13
ag13
ag13
ag13
ag13
ag13
ag14
ag14
ag14
ag14
ag13
ag13
ag13
ag13
ag13
ag13
ag13
ag13
ag14
ag14
ag13
ag13
ag13
ag13
ag13
ag13
ag13
ag13
ag13
ag13
ag13
ag13
ag13
ag13
ag13
ag13
ag13
ag13
ag13
ag13
ag13
ag13
ag13
ag13
ag13
ag13
ag13
ag13
ag13
ag13
ag13
ag13
ag13
ag12
ag12
ag12
ag12
ag12
ag13
ag12
ag12
ag12
ag13
ag12
ag13
ag13
ag13
ag13
ag13
ag13
ag13
ag13
ag13
ag13
ag14
ag14
ag14
ag14
ag14
ag14
ag14
ag14
ag14
ag14
ag14
ag13
ag14
ag13
ag13
ag13
ag13
ag13
ag14
ag14
ag13
ag13
ag14
ag14
ag12
ag12
ag13
ag13
ag13
ag14
ag14
ag14
ag14
ag14
ag14
ag14
ag14
ag14
ag14
ag14
ag13
ag14
ag14
ag14
ag14
ag14
ag14
ag13
ag13
ag13
ag14
ag13
ag13
ag13
ag14
ag14
ag14
ag13
ag14
ag13
ag13
ag13
ag13
ag14
ag14
ag14
ag14
ag14
ag14
ag13
ag13
ag14
ag13
ag13
ag13
ag14
ag13
ag13
ag13
ag13
ag13
ag14
ag14
ag12
ag13
ag12
ag13
ag13
ag13
ag13
ag13
ag14
ag14
ag14
ag14
ag14
ag14
ag14
ag13
ag14
ag13
ag13
ag13
ag13
ag13
ag13
ag13
ag12
ag13
ag14
ag14
ag13
ag12
ag13
ag13
ag13
ag13
ag13
ag12
ag12
ag12
ag12
ag14
ag14
ag14
ag13
ag13
ag13
ag13
ag13
ag13
ag13
ag13
ag13
ag13
ag14
ag14
ag14
ag14
ag14
ag14
ag13
ag13
ag13
ag13
ag13
ag14
ag14
ag14
ag14
ag14
ag14
ag13
ag14
ag14
ag13
ag13
ag14
ag14
ag14
ag14
ag13
ag13
ag12
ag13
ag13
ag14
ag14
ag14
ag14
ag14
ag14
ag14
ag14
ag14
ag14
ag14
ag14
ag14
ag14
ag14
ag14
ag14
ag14
ag14
ag14
ag14
ag14
ag14
ag14
ag14
ag14
ag14
ag14
ag14
ag14
ag14
ag14
ag14
ag14
ag14
ag14
ag14
ag14
ag14
ag14
ag14
ag14
ag14
ag14
ag14
ag14
ag14
ag14
ag14
ag14
ag14
ag14
ag14
ag14
ag14
ag14
ag14
ag14
ag14
ag14
ag14
ag14
ag14
ag14
ag14
ag14
ag14
ag14
ag14
ag14
ag14
ag14
ag14
ag14
ag14
ag14
ag14
ag14
ag14
ag14
ag14
ag14
ag14
ag14
ag14
ag14
ag14
ag14
ag14
ag14
ag14
ag14
ag14
ag14
ag14
ag14
ag14
ag14
ag14
ag14
ag14
ag14
ag14
ag14
ag14
ag14
ag14
ag14
ag14
ag14
ag14
ag14
ag14
ag14
ag14
ag14
ag14
ag14
ag14
ag14
ag14
ag14
ag14
ag14
ag14
ag14
ag14
ag14
ag14
ag14
ag14
ag14
ag14
ag14
ag14
ag14
ag14
ag14
ag14
ag14
ag14
ag14
ag14
ag14
ag14
ag14
ag14
ag14
ag14
ag14
ag14
ag14
ag14
ag14
ag14
ag14
ag14
ag14
ag14
ag14
ag14
ag14
ag14
ag14
ag14
ag14
ag14
ag14
ag14
ag14
ag14
ag14
ag14
ag14
ag14
ag14
ag14
ag14
ag14
ag14
ag14
ag14
ag14
ag14
ag14
ag14
ag14
ag14
ag14
ag14
ag14
ag14
ag14
ag14
ag14
ag14
ag14
ag14
ag14
ag14
ag14
ag14
ag14
ag14
ag14
ag14
ag14
ag14
ag14
ag14
ag14
ag14
ag14
ag14
ag14
ag14
ag14
ag14
ag14
ag14
ag14
ag14
ag14
ag14
ag14
ag14
ag14
ag14
ag14
ag14
ag14
ag14
ag14
ag14
ag14
ag14
ag14
ag14
ag14
ag14
ag14
ag14
ag14
ag14
ag14
ag14
ag14
ag14
ag14
ag14
ag14
ag14
ag14
ag14
ag14
ag14
ag14
ag14
ag14
ag14
ag14
ag14
ag14
ag14
ag14
ag14
ag14
ag14
ag14
ag14
ag14
ag14
ag14
ag14
ag14
ag14
ag14
ag14
ag14
ag14
ag14
ag14
ag14
ag14
ag14
ag14
ag14
ag14
ag14
ag14
ag14
ag14
ag14
ag14
ag14
ag14
ag14
ag14
ag14
ag14
ag14
ag14
ag14
ag14
ag14
ag14
ag14
ag14
ag14
ag14
ag14
ag14
ag14
ag14
ag14
ag14
ag14
ag14
ag14
ag14
ag14
ag14
ag14
ag14
ag14
ag14
ag14
ag14
ag14
ag14
ag14
ag14
ag14
ag14
ag14
ag14
ag14
ag14
ag14
ag14
ag14
ag14
ag14
ag14
ag14
ag14
ag14
ag14
ag14
ag14
ag14
ag14
ag14
ag14
ag14
ag14
ag14
ag14
ag14
ag14
ag14
ag14
ag14
ag14
ag14
ag14
ag14
ag14
ag14
ag14
ag14
ag14
ag14
ag14
ag14
ag14
ag14
ag14
ag14
ag14
ag14
ag14
ag14
ag14
ag14
ag14
ag14
ag14
ag14
ag14
ag14
ag14
ag14
ag14
ag14
ag14
ag14
ag14
ag14
ag14
ag14
ag14
ag14
ag14
ag14
ag14
ag14
ag14
ag14
ag13
ag13
ag13
ag13
ag13
ag13
ag13
ag13
ag13
ag13
ag13
ag13
ag13
ag13
ag13
ag13
ag13
ag13
ag13
ag13
ag13
ag13
ag13
ag13
ag13
ag13
ag13
ag13
ag13
ag13
ag13
ag13
ag13
ag13
ag13
ag13
ag13
ag13
ag13
ag13
ag13
ag13
ag13
ag13
ag13
ag13
ag13
ag13
ag13
ag13
ag13
ag13
ag13
ag13
ag13
ag13
ag13
ag13
ag13
ag13
ag13
ag13
ag13
ag13
ag13
ag13
ag13
ag13
ag13
ag13
ag13
ag13
ag13
ag14
ag13
ag13
ag13
ag13
ag13
ag13
ag13
ag1
ag1
ag1
ag1
ag1
ag1
ag1
ag1
ag1
ag1
ag1
ag1
ag1
ag1
ag1
ag1
ag1
ag1
ag1
ag1
ag1
ag1
ag1
ag1
ag1
ag1
ag1
ag1
ag1
ag1
ag1
ag1
ag1
ag3
ag3
ag1
ag1
ag1
ag1
ag1
ag6
ag6
ag6
ag6
ag7
ag7
ag7
ag7
ag7
ag7
ag7
ag7
ag7
ag7
ag7
ag7
ag7
ag7
ag7
ag7
ag4
ag4
ag4
ag4
ag4
ag4
ag4
ag4
ag4
ag7
ag4
ag4
ag4
ag3
ag3
ag3
ag3
ag3
ag3
ag3
ag3
ag3
ag3
ag3
ag3
ag3
ag3
ag3
ag3
ag3
ag3
ag4
ag4
ag3
ag12
ag12
ag3
ag3
ag3
ag3
ag5
ag5
ag3
ag3
ag4
ag3
ag3
ag5
ag5
ag5
ag5
ag5
ag5
ag5
ag5
ag5
ag6
ag6
ag6
ag6
ag6
ag6
ag6
ag6
ag6
ag3
ag3
ag3
ag3
ag3
ag8
ag8
ag8
ag8
ag8
ag8
ag8
ag8
ag8
ag8
ag8
ag8
ag8
ag8
ag8
ag8
ag8
ag8
ag8
ag8
ag8
ag8
ag3
ag3
ag3
ag3
ag3
ag3
ag3
ag5
ag5
ag5
ag5
ag5
ag5
ag5
ag6
ag6
ag5
ag5
ag5
ag3
ag3
ag3
ag3
ag3
ag3
ag3
ag3
ag3
ag3
ag3
ag3
ag3
ag3
ag3
ag5
ag3
ag5
ag3
ag3
ag3
ag3
ag3
ag3
ag6
ag6
ag6
ag6
ag6
ag6
ag6
ag6
ag6
ag6
ag6
ag6
ag6
ag6
ag6
ag6
ag6
ag6
ag6
ag6
ag6
ag6
ag6
ag3
ag3
ag5
ag5
ag5
ag6
ag5
ag5
ag5
ag3
ag3
ag5
ag5
ag5
ag5
ag3
ag6
ag3
ag3
ag7
ag4
ag7
ag7
ag7
ag8
ag7
ag7
ag7
ag3
ag3
ag3
ag3
ag3
ag3
ag3
ag3
ag3
ag3
ag3
ag3
ag3
ag3
ag3
ag4
ag4
ag4
ag3
ag4
ag1
ag1
ag1
ag1
ag2
ag2
ag1
ag1
ag1
ag1
ag1
ag1
ag2
ag1
ag3
ag3
ag3
ag3
ag3
ag3
ag3
ag3
ag3
ag2
ag1
ag1
ag1
ag1
ag3
ag3
ag3
ag4
ag4
ag3
ag4
ag8
ag8
ag8
ag8
ag8
ag8
ag8
ag8
ag8
ag8
ag8
ag8
ag8
ag8
ag8
ag8
ag8
ag8
ag8
ag8
ag8
ag8
ag8
ag8
ag8
ag8
ag8
ag8
ag8
ag8
ag8
ag8
ag8
ag8
ag8
ag8
ag8
ag8
ag8
ag8
ag8
ag8
ag8
ag8
ag7
ag9
ag9
ag9
ag9
ag8
ag8
ag9
ag9
ag9
ag9
ag9
ag8
ag8
ag8
ag8
ag8
ag8
ag8
ag8
ag8
ag8
ag8
ag8
ag8
ag8
ag8
ag8
ag8
ag8
ag8
ag8
ag8
ag8
ag8
ag8
ag8
ag1
ag1
ag1
ag2
ag1
ag1
ag1
ag3
ag3
ag11
ag3
ag11
ag7
ag10
ag10
ag10
ag10
ag10
ag10
ag10
ag10
ag10
ag10
ag10
ag10
ag10
ag10
ag10
ag10
ag10
ag10
ag10
ag10
ag10
ag10
ag10
ag10
ag10
ag10
ag10
ag10
ag10
ag10
ag10
ag10
ag10
ag10
ag10
ag10
ag10
aS'leftToes'
p15
ag15
ag15
ag15
ag15
ag15
ag15
ag15
ag15
ag15
ag15
ag15
ag15
ag15
ag15
ag15
ag15
ag15
ag15
ag15
ag15
ag15
ag15
ag15
ag15
ag15
ag15
ag15
ag15
ag15
ag15
ag15
ag15
ag15
ag15
ag15
ag15
ag15
ag15
ag15
ag15
ag15
ag15
ag15
ag15
ag15
ag15
ag15
ag15
ag15
ag15
ag15
ag15
ag15
ag15
ag15
ag15
ag15
ag15
ag15
ag15
ag15
ag15
ag15
ag15
ag15
ag15
ag15
ag15
ag15
ag15
ag15
ag15
ag15
ag15
ag15
ag15
ag15
ag15
ag15
ag15
ag15
ag15
ag15
ag15
ag15
ag15
ag15
ag15
ag15
ag15
ag15
ag15
ag15
ag15
ag15
ag15
ag15
ag15
ag15
ag15
ag15
ag15
ag15
ag15
ag15
ag15
ag15
ag10
ag10
ag10
ag10
ag10
aS'leftFoot'
p16
ag16
ag10
ag16
ag16
ag16
ag16
ag16
ag16
ag16
ag16
ag16
ag15
ag15
ag15
ag15
ag15
ag15
ag15
ag15
ag15
ag16
ag15
ag16
ag16
ag16
ag15
ag16
ag15
ag15
ag15
ag15
ag16
ag15
ag15
ag15
ag15
ag15
ag15
ag16
ag16
ag16
ag16
ag16
ag16
ag16
ag16
ag16
ag16
ag16
ag16
ag16
ag16
ag16
ag16
ag16
ag16
ag16
ag16
ag16
ag16
ag16
ag16
ag16
ag16
ag16
ag16
ag16
ag16
ag16
ag16
ag16
ag16
ag16
ag16
ag16
ag16
ag16
ag16
ag16
ag16
ag16
ag16
ag16
ag16
ag16
ag16
ag16
ag16
ag16
ag16
ag16
ag16
ag16
ag16
ag16
ag16
ag16
ag16
ag16
ag16
ag16
ag16
ag16
ag16
ag16
ag16
ag16
ag16
ag16
ag16
ag16
ag16
ag16
ag16
ag16
ag16
ag16
ag16
ag16
ag16
ag16
ag16
ag16
ag16
ag16
ag16
ag16
ag16
ag16
ag16
ag16
ag16
ag16
ag16
ag16
ag16
ag16
ag16
ag16
ag16
ag16
ag16
ag16
ag16
ag16
ag3
ag3
ag10
ag10
ag10
ag9
ag7
ag7
ag7
ag9
ag4
ag8
ag3
ag3
ag8
ag1
ag1
ag1
ag1
ag1
ag1
ag1
ag1
ag1
ag1
ag3
ag3
ag3
ag3
ag1
ag7
ag7
ag7
ag8
ag7
ag3
ag3
ag8
ag3
ag7
ag8
ag7
ag1
ag1
ag1
ag1
ag1
ag1
ag1
ag1
ag1
ag1
ag1
ag1
ag1
ag1
ag1
ag1
ag1
ag1
ag1
ag1
ag1
ag1
ag1
ag1
ag1
ag1
ag1
ag1
ag1
ag1
ag1
ag1
ag1
ag1
ag1
ag1
ag1
ag1
ag1
ag1
ag1
ag1
ag1
ag1
ag1
ag1
ag1
ag1
ag1
ag1
ag1
ag1
ag1
ag1
ag1
ag1
ag1
ag1
ag1
ag1
ag1
ag1
ag1
ag1
ag1
ag1
ag1
ag1
ag1
ag1
ag1
ag1
ag1
ag1
ag1
ag1
ag1
ag1
ag1
ag1
ag1
ag1
ag1
ag1
ag1
ag1
ag1
ag1
ag1
ag1
ag1
ag1
ag1
ag1
ag1
ag1
ag1
ag1
ag1
ag1
ag1
ag1
ag1
ag1
ag1
ag1
ag1
ag1
ag1
ag1
ag1
ag1
ag1
ag1
ag1
ag1
ag1
ag1
ag1
ag1
ag1
ag1
ag1
ag1
ag1
ag1
ag1
ag1
ag1
ag1
ag1
ag1
ag1
ag1
ag1
ag1
ag1
ag1
ag1
ag1
ag1
ag1
ag1
ag1
ag1
ag1
ag1
ag1
ag1
ag1
ag2
ag2
ag2
ag2
ag1
ag1
ag1
ag1
ag1
ag1
ag1
ag1
ag1
ag1
ag1
ag1
ag1
ag1
ag1
ag1
ag1
ag1
ag1
ag1
ag1
ag1
ag1
ag1
ag1
ag1
ag1
ag1
ag1
ag1
ag1
ag1
ag1
ag1
ag1
ag1
ag1
ag1
ag1
ag1
ag1
ag1
ag1
ag1
ag1
ag1
ag1
ag1
ag1
ag1
ag1
ag1
ag2
ag2
ag2
ag2
ag2
ag2
ag2
ag2
ag2
ag2
ag2
ag2
ag2
ag2
ag1
ag1
ag2
ag2
ag2
ag1
ag1
ag1
ag1
ag1
ag1
ag1
ag1
ag1
ag1
ag1
ag1
ag1
ag1
ag1
ag1
ag1
ag1
ag1
ag1
ag1
ag1
ag1
ag1
ag1
ag1
ag1
ag1
ag1
ag1
ag1
ag2
ag2
ag1
ag1
ag1
ag1
ag1
ag1
ag1
ag1
ag1
ag1
ag1
ag1
ag1
ag1
ag1
ag1
ag1
ag1
ag1
ag1
ag1
ag1
ag1
ag1
ag1
ag1
ag2
ag2
ag1
ag1
ag1
ag1
ag1
ag1
ag1
ag1
ag1
ag1
ag2
ag2
ag2
ag2
ag2
ag2
ag1
ag1
ag1
ag2
ag2
ag1
ag1
ag1
ag1
ag1
ag1
ag1
ag1
ag1
ag1
ag1
ag1
ag1
ag1
ag1
ag1
ag1
ag1
ag1
ag1
ag2
ag2
ag1
ag1
ag1
ag1
ag1
ag1
ag1
ag1
ag1
ag1
ag1
ag1
ag1
ag1
ag1
ag1
ag1
ag1
ag1
ag1
ag1
ag1
ag1
ag1
ag1
ag1
ag1
ag1
ag1
ag1
ag1
ag1
ag1
ag1
ag1
ag1
ag1
ag1
ag1
ag1
ag1
ag1
ag1
ag1
ag1
ag1
ag1
ag1
ag1
ag1
ag1
ag1
ag1
ag1
ag1
ag1
ag1
ag1
ag1
ag1
ag1
ag1
ag1
ag1
ag1
ag1
ag1
ag1
ag1
ag1
ag1
ag1
ag1
ag1
ag1
ag1
ag1
ag2
ag2
ag2
ag2
ag1
ag1
ag1
ag1
ag1
ag1
ag1
ag1
ag1
ag1
ag1
ag1
ag2
ag2
ag1
ag1
ag1
ag1
ag1
ag1
ag2
ag2
ag2
ag1
ag1
ag1
ag1
ag1
ag1
ag1
ag1
ag1
ag1
ag1
ag1
ag1
ag1
ag1
ag1
ag1
ag1
ag1
ag1
ag1
ag1
ag1
ag1
ag1
ag1
ag1
ag1
ag1
ag1
ag1
ag1
ag1
ag1
ag1
ag1
ag1
ag1
ag1
ag1
ag1
ag1
ag1
ag1
ag1
ag1
ag1
ag1
ag1
ag1
ag1
ag1
ag1
ag1
ag1
ag1
ag1
ag1
ag1
ag1
ag1
ag1
ag1
ag1
ag1
ag1
ag1
ag1
ag1
ag1
ag1
ag1
ag1
ag1
ag1
ag1
ag1
ag1
ag1
ag1
ag1
ag1
ag1
ag1
ag1
ag1
ag1
ag1
ag1
ag1
ag1
ag1
ag1
ag1
ag1
ag1
ag1
ag1
ag1
ag1
ag1
ag1
ag1
ag1
ag1
ag1
ag1
ag1
ag1
ag1
ag1
ag1
ag1
ag3
ag3
ag2
ag2
ag1
ag1
ag1
ag1
ag1
ag1
ag1
ag1
ag1
ag1
ag3
ag3
ag3
ag3
ag3
ag3
ag3
ag3
ag3
ag3
ag3
ag3
ag3
ag3
ag4
ag4
ag4
ag4
ag3
aS'rightShoulder'
p17
ag17
ag3
ag17
ag17
ag3
ag3
ag3
ag4
ag3
ag3
ag4
ag4
ag4
ag4
ag4
ag4
ag4
ag4
ag3
ag3
ag3
ag3
aS'rightUpperArm'
p18
ag18
ag18
ag18
ag7
ag7
ag7
ag7
ag18
ag17
ag17
ag18
ag3
ag3
ag3
ag3
ag3
ag3
ag3
ag3
ag4
ag4
ag3
ag3
ag3
ag3
ag4
ag4
ag7
ag7
ag7
ag7
ag4
ag4
ag4
ag4
ag7
ag7
ag7
ag7
ag3
ag3
ag4
ag4
ag4
ag4
ag3
ag3
ag3
ag3
ag8
ag8
ag8
ag8
ag18
ag3
ag3
ag18
ag4
ag4
ag4
ag4
ag4
ag4
ag4
ag4
ag4
ag3
ag3
ag3
ag3
ag3
ag3
ag3
ag3
ag3
ag3
ag3
ag3
ag8
ag17
ag17
ag17
ag17
ag17
ag17
ag17
ag17
ag3
ag3
ag18
ag18
ag18
ag18
ag7
ag7
ag4
ag4
ag3
ag3
ag3
ag3
ag3
ag3
ag3
ag17
ag3
ag3
ag17
ag3
ag3
ag3
ag3
ag3
ag3
ag3
ag3
ag3
ag3
ag3
ag3
ag3
ag3
ag3
ag3
ag3
ag3
ag3
ag3
ag3
ag3
ag3
ag3
ag3
ag3
ag3
ag3
ag3
ag3
ag7
ag7
ag4
ag4
ag18
ag18
ag18
ag18
ag18
ag18
ag18
ag18
ag18
ag18
ag18
ag18
ag17
ag17
ag17
ag18
ag18
ag18
ag18
ag18
ag18
ag18
ag18
ag18
ag18
ag4
ag4
ag7
ag7
ag7
ag7
ag8
ag8
ag8
ag3
ag3
ag3
ag3
ag8
ag8
ag8
ag8
ag3
ag3
ag3
ag3
ag8
ag8
ag3
ag3
ag3
ag3
ag3
ag8
ag8
ag3
ag2
ag2
ag2
ag8
ag8
ag8
ag8
ag11
ag11
ag8
ag8
ag8
ag8
ag8
ag8
ag8
ag8
ag8
ag8
ag8
ag11
ag11
ag11
ag11
ag11
ag11
ag11
ag11
ag8
ag8
ag8
ag8
ag8
ag8
ag8
ag8
ag8
ag8
ag8
ag8
ag8
ag8
ag8
ag11
ag11
ag11
ag11
ag11
ag11
ag11
ag11
ag11
ag11
ag11
ag11
ag8
ag8
ag8
ag8
ag8
ag8
ag8
ag7
ag7
ag4
ag4
ag4
ag3
ag3
ag3
ag11
ag11
ag11
ag11
ag11
ag11
ag11
ag11
ag11
ag11
ag11
ag11
ag11
ag11
ag11
ag8
ag8
ag11
ag11
ag7
ag7
ag8
ag7
ag7
ag7
ag7
ag7
ag7
ag4
ag4
ag4
ag4
ag4
ag3
ag3
ag8
ag11
ag11
ag11
ag11
ag8
ag8
ag8
ag4
ag4
ag3
ag4
ag11
ag11
ag11
ag11
ag11
ag11
ag11
ag11
ag11
ag11
ag11
ag11
ag11
ag11
ag11
ag11
ag11
ag11
ag11
ag11
ag11
ag11
ag11
ag11
ag11
ag11
ag11
ag11
ag11
ag11
ag11
ag11
ag11
ag11
ag11
ag11
ag11
ag11
ag11
ag11
ag11
ag11
ag11
ag11
ag11
ag11
ag11
ag11
ag11
ag11
ag11
aS'rightCalf'
p19
ag19
ag11
ag11
ag19
ag19
ag11
ag11
ag11
ag11
ag19
ag19
ag19
ag11
ag19
ag11
ag11
ag19
ag11
ag19
ag19
ag11
ag11
ag11
ag19
ag19
ag11
ag11
ag11
ag11
ag11
ag11
ag11
ag11
ag11
ag11
ag11
ag11
ag11
ag11
ag11
ag11
ag11
ag11
ag11
ag11
ag11
ag11
ag19
ag11
ag11
ag19
ag19
ag19
ag19
ag19
ag19
ag19
ag19
ag19
ag19
ag19
ag19
ag19
ag19
ag19
ag19
ag19
ag19
ag19
ag19
ag19
ag19
ag19
ag19
ag19
ag19
ag19
ag19
ag19
ag19
ag19
ag19
ag19
ag19
ag19
ag19
ag19
ag19
ag19
ag19
ag19
ag19
ag19
ag19
ag19
ag19
ag19
ag19
ag19
ag19
ag19
ag19
ag19
ag19
ag19
ag19
ag19
ag19
ag19
ag19
ag19
ag19
ag19
ag19
ag19
ag19
ag19
ag19
ag19
ag19
ag19
ag19
ag19
ag19
ag19
ag19
ag19
ag19
ag19
ag19
ag19
ag19
ag19
ag19
ag19
ag19
ag19
ag19
ag19
ag19
ag19
ag11
ag11
ag11
ag11
ag11
ag11
ag11
ag11
ag11
ag11
ag11
ag19
ag19
ag19
ag19
ag19
ag19
ag19
ag19
ag19
ag19
ag19
ag11
ag11
ag11
ag11
ag11
ag11
ag11
ag11
ag11
ag11
ag11
ag11
ag11
ag11
ag11
ag11
ag19
ag19
ag19
ag19
ag19
ag19
ag19
ag19
ag19
ag11
ag11
ag11
ag11
ag7
ag7
ag4
ag4
ag4
ag4
ag4
ag4
ag4
ag4
ag3
ag3
ag4
ag4
ag4
ag8
ag8
ag8
ag8
ag8
ag7
ag4
ag3
ag3
ag3
ag3
ag3
ag3
ag3
ag3
ag11
ag11
ag11
ag11
ag11
ag11
ag11
ag11
ag11
ag11
ag18
ag18
ag18
ag18
ag3
ag3
ag3
ag17
ag17
ag17
ag17
ag17
ag17
ag17
ag17
ag8
ag8
ag7
ag7
ag7
ag7
ag3
ag3
ag3
ag3
ag3
ag3
ag18
ag18
ag18
ag18
ag11
ag11
ag7
ag7
ag7
ag7
ag4
ag4
ag4
ag3
ag3
ag18
ag11
ag11
ag11
ag11
ag2
ag2
ag18
ag18
ag3
ag3
ag3
ag3
ag3
ag3
ag3
ag3
ag17
ag17
ag3
ag3
ag3
ag3
ag3
ag3
ag3
ag3
ag3
ag3
ag3
ag3
ag2
ag3
ag3
ag18
ag18
ag2
ag2
ag18
ag18
ag17
ag17
ag17
ag2
ag2
ag11
ag11
ag7
ag7
ag7
ag7
ag2
ag7
ag7
ag7
ag7
ag7
ag8
ag8
ag8
ag18
ag18
ag18
ag18
ag7
ag7
ag3
ag3
ag4
ag3
ag3
ag3
ag3
ag11
ag18
ag18
ag18
ag18
ag11
ag11
ag11
ag11
ag11
ag11
ag11
ag11
ag19
ag19
ag19
ag19
ag19
ag19
ag19
ag18
ag18
ag18
ag18
ag18
ag18
ag18
ag18
ag18
ag18
ag18
ag18
ag18
ag18
ag18
ag18
ag18
ag18
ag18
ag18
ag18
ag18
ag18
ag18
ag18
ag3
ag18
ag18
ag18
ag18
ag18
ag18
ag18
ag18
ag18
ag18
ag18
ag18
ag18
ag18
ag18
ag3
ag3
ag3
ag4
ag4
ag3
ag3
ag4
ag4
ag4
ag3
ag18
ag18
ag18
ag18
ag18
ag18
ag3
ag3
ag3
ag3
ag18
ag18
ag18
ag18
ag18
ag18
ag18
ag18
ag8
ag8
ag8
ag8
ag8
ag11
ag11
ag11
ag8
ag11
ag11
ag11
ag11
ag11
ag11
ag11
ag11
ag11
ag19
ag19
ag19
ag19
ag19
ag19
ag19
ag19
ag19
ag19
ag19
ag11
ag11
ag11
ag11
ag11
ag7
ag7
ag7
ag7
ag7
ag7
ag7
ag7
ag7
ag7
ag7
ag7
ag7
ag7
ag7
ag7
ag8
ag11
ag11
ag11
ag11
ag18
ag3
ag3
ag18
ag18
ag18
ag18
ag18
ag18
ag8
ag8
ag11
ag11
ag11
ag11
ag11
ag11
ag11
ag11
ag19
ag19
ag19
ag19
ag19
ag19
ag19
ag19
ag19
ag19
ag19
ag11
ag11
ag17
ag3
ag3
ag18
ag18
ag18
ag18
ag3
ag18
aS'rightForeArm'
p20
ag20
ag20
ag20
ag20
ag20
ag20
ag20
ag20
ag20
ag20
ag20
ag20
ag20
ag20
ag20
ag20
ag20
ag20
ag20
ag20
ag20
ag20
ag20
ag20
ag20
ag20
ag20
ag20
ag20
ag20
ag20
ag20
ag20
ag20
ag20
ag20
ag20
ag20
ag20
ag20
ag20
ag20
ag20
ag20
ag20
ag20
ag20
ag20
ag20
ag20
ag20
ag20
ag20
ag20
ag20
ag20
ag20
ag20
ag20
ag20
ag20
ag20
ag20
ag20
ag20
ag20
ag20
ag20
ag20
ag20
ag20
ag20
ag18
ag18
ag20
ag20
ag20
ag20
ag20
ag20
ag20
ag20
ag20
ag20
ag18
ag18
ag18
ag18
ag18
ag18
ag18
ag18
ag18
ag18
ag18
ag18
ag20
ag20
ag18
ag18
ag20
ag20
ag18
ag18
ag20
ag20
ag18
ag18
ag20
ag20
ag20
ag20
ag20
ag20
ag20
ag20
ag20
ag20
ag20
ag20
ag18
ag18
ag18
ag18
ag18
ag18
ag18
ag18
ag18
ag18
ag18
ag18
ag18
ag18
ag18
ag18
ag18
ag18
ag20
ag20
ag20
ag20
ag20
ag20
ag20
ag20
ag20
ag20
ag20
ag18
ag18
ag18
ag20
ag20
ag20
ag20
ag18
ag18
ag18
ag18
ag18
ag18
ag18
ag18
ag18
ag18
ag18
ag18
ag18
ag18
ag18
ag18
ag18
ag18
ag20
ag20
ag20
ag20
ag20
ag20
ag20
ag20
ag20
ag20
ag18
ag18
ag20
ag18
ag18
ag20
ag18
ag20
ag18
ag18
ag20
ag20
ag20
ag20
ag18
ag18
ag18
ag18
ag18
ag20
ag18
ag20
ag3
ag4
ag4
ag4
ag3
ag3
ag3
ag18
ag3
ag1
ag1
ag1
ag7
ag1
ag1
ag1
ag1
ag1
ag1
ag1
ag1
ag1
ag8
ag8
ag8
ag8
ag8
ag8
ag8
ag8
ag8
ag8
ag8
ag8
ag8
ag8
ag8
ag8
ag8
ag8
ag8
ag8
ag8
ag8
ag8
ag8
ag8
ag3
ag3
ag3
ag17
ag17
ag17
ag17
ag17
ag3
ag3
ag3
ag3
ag3
ag17
ag17
ag17
ag17
ag17
ag17
ag17
ag17
ag17
ag17
ag18
ag18
ag17
ag3
ag3
ag3
ag17
ag3
ag3
ag17
ag17
ag18
ag18
ag17
ag18
ag18
ag18
ag18
ag17
ag18
ag17
ag17
ag18
ag18
ag17
ag17
ag18
ag18
ag17
ag18
ag17
ag17
ag17
ag17
ag18
ag18
ag18
ag18
ag18
ag18
ag18
ag17
ag17
ag18
ag18
ag18
ag18
ag18
ag3
ag18
ag17
ag18
ag18
ag17
ag17
ag17
ag17
ag18
ag18
ag17
ag17
ag18
ag17
ag17
ag17
ag17
ag17
ag17
ag17
ag20
ag18
ag18
ag18
ag18
ag1
ag1
ag1
ag1
ag20
ag20
ag20
ag20
ag20
ag20
ag20
ag20
ag20
ag20
ag20
ag20
ag20
ag20
ag20
ag20
ag20
ag20
ag20
ag20
ag20
ag20
ag20
ag20
ag20
ag20
ag20
ag20
ag20
ag20
ag20
ag20
ag20
ag20
ag20
ag20
ag20
ag20
ag20
ag20
ag20
ag20
ag20
ag20
ag20
ag20
ag20
ag20
ag20
ag20
ag20
ag20
ag20
ag20
ag20
ag20
ag20
ag20
ag20
ag20
ag20
ag20
ag20
ag20
ag20
ag20
ag20
ag20
ag20
ag20
ag20
ag20
aS'rightHand'
p21
ag21
ag21
ag21
ag21
ag21
ag21
ag21
ag21
ag21
ag21
ag21
ag21
ag21
ag21
ag21
ag21
ag21
ag21
ag21
ag21
ag21
ag21
ag21
ag21
ag21
ag21
ag21
ag21
ag21
ag21
ag21
ag21
ag21
ag21
ag21
ag21
ag21
ag21
ag21
ag21
ag21
ag21
ag21
ag21
ag21
aS'rightFingers'
p22
ag22
ag22
ag22
ag21
ag21
ag21
ag21
ag21
ag21
ag22
ag22
ag22
ag22
ag21
ag21
ag21
ag21
ag21
ag21
ag21
ag21
ag21
ag21
ag21
ag21
ag21
ag21
ag22
ag22
ag22
ag22
ag21
ag21
ag21
ag21
ag21
ag21
ag21
ag21
ag22
ag22
ag21
ag21
ag21
ag21
ag21
ag21
ag21
ag21
ag21
ag21
ag21
ag21
ag21
ag21
ag21
ag21
ag21
ag21
ag21
ag21
ag21
ag21
ag21
ag21
ag21
ag21
ag21
ag21
ag21
ag21
ag21
ag21
ag21
ag20
ag20
ag20
ag20
ag20
ag20
ag21
ag20
ag21
ag20
ag20
ag21
ag21
ag21
ag21
ag21
ag21
ag21
ag21
ag21
ag21
ag22
ag22
ag22
ag22
ag22
ag22
ag22
ag22
ag22
ag22
ag22
ag22
ag21
ag21
ag21
ag21
ag21
ag22
ag22
ag21
ag21
ag21
ag22
ag22
ag20
ag20
ag21
ag21
ag21
ag22
ag22
ag22
ag22
ag22
ag22
ag22
ag22
ag22
ag21
ag22
ag22
ag22
ag22
ag22
ag22
ag22
ag22
ag21
ag21
ag21
ag21
ag21
ag22
ag21
ag22
ag22
ag22
ag21
ag22
ag21
ag21
ag21
ag21
ag22
ag22
ag22
ag22
ag22
ag22
ag21
ag22
ag21
ag21
ag21
ag21
ag22
ag21
ag21
ag21
ag21
ag21
ag22
ag22
ag21
ag20
ag20
ag21
ag21
ag21
ag21
ag21
ag22
ag22
ag22
ag22
ag22
ag22
ag22
ag21
ag22
ag21
ag21
ag21
ag21
ag21
ag21
ag21
ag20
ag21
ag22
ag22
ag21
ag20
ag21
ag21
ag21
ag21
ag21
ag20
ag20
ag20
ag20
ag22
ag22
ag22
ag21
ag21
ag21
ag21
ag21
ag21
ag21
ag21
ag21
ag21
ag22
ag22
ag22
ag22
ag22
ag22
ag21
ag21
ag21
ag21
ag21
ag22
ag22
ag22
ag22
ag22
ag22
ag21
ag22
ag22
ag21
ag21
ag22
ag22
ag22
ag22
ag21
ag21
ag20
ag21
ag21
ag22
ag22
ag22
ag22
ag22
ag22
ag22
ag22
ag22
ag22
ag22
ag22
ag22
ag22
ag22
ag22
ag22
ag22
ag22
ag22
ag22
ag22
ag22
ag22
ag22
ag22
ag22
ag22
ag22
ag22
ag22
ag22
ag22
ag22
ag22
ag22
ag22
ag22
ag22
ag22
ag22
ag22
ag22
ag22
ag22
ag22
ag22
ag22
ag22
ag22
ag22
ag22
ag22
ag22
ag22
ag22
ag22
ag22
ag22
ag22
ag22
ag22
ag22
ag22
ag22
ag22
ag22
ag22
ag22
ag22
ag22
ag22
ag22
ag22
ag22
ag22
ag22
ag22
ag22
ag22
ag22
ag22
ag22
ag22
ag22
ag22
ag22
ag22
ag22
ag22
ag22
ag22
ag22
ag22
ag22
ag22
ag22
ag22
ag22
ag22
ag22
ag22
ag22
ag22
ag22
ag22
ag22
ag22
ag22
ag22
ag22
ag22
ag22
ag22
ag22
ag22
ag22
ag22
ag22
ag22
ag22
ag22
ag22
ag22
ag22
ag22
ag22
ag22
ag22
ag22
ag22
ag22
ag22
ag22
ag22
ag22
ag22
ag22
ag22
ag22
ag22
ag22
ag22
ag22
ag22
ag22
ag22
ag22
ag22
ag22
ag22
ag22
ag22
ag22
ag22
ag22
ag22
ag22
ag22
ag22
ag22
ag22
ag22
ag22
ag22
ag22
ag22
ag22
ag22
ag22
ag22
ag22
ag22
ag22
ag22
ag22
ag22
ag22
ag22
ag22
ag22
ag22
ag22
ag22
ag22
ag22
ag22
ag22
ag22
ag22
ag22
ag22
ag22
ag22
ag22
ag22
ag22
ag22
ag22
ag22
ag22
ag22
ag22
ag22
ag22
ag22
ag22
ag22
ag22
ag22
ag22
ag22
ag22
ag22
ag22
ag22
ag22
ag22
ag22
ag22
ag22
ag22
ag22
ag22
ag22
ag22
ag22
ag22
ag22
ag22
ag22
ag22
ag22
ag22
ag22
ag22
ag22
ag22
ag22
ag22
ag22
ag22
ag22
ag22
ag22
ag22
ag22
ag22
ag22
ag22
ag22
ag22
ag22
ag22
ag22
ag22
ag22
ag22
ag22
ag22
ag22
ag22
ag22
ag22
ag22
ag22
ag22
ag22
ag22
ag22
ag22
ag22
ag22
ag22
ag22
ag22
ag22
ag22
ag22
ag22
ag22
ag22
ag22
ag22
ag22
ag22
ag22
ag22
ag22
ag22
ag22
ag22
ag22
ag22
ag22
ag22
ag22
ag22
ag22
ag22
ag22
ag22
ag22
ag22
ag22
ag22
ag22
ag22
ag22
ag22
ag22
ag22
ag22
ag22
ag22
ag22
ag22
ag22
ag22
ag22
ag22
ag22
ag22
ag22
ag22
ag22
ag22
ag22
ag22
ag22
ag22
ag22
ag22
ag22
ag22
ag22
ag22
ag22
ag22
ag22
ag22
ag22
ag22
ag22
ag22
ag22
ag22
ag22
ag22
ag22
ag22
ag22
ag22
ag22
ag22
ag22
ag22
ag22
ag22
ag22
ag22
ag22
ag22
ag22
ag22
ag22
ag22
ag22
ag22
ag22
ag22
ag22
ag22
ag22
ag22
ag22
ag22
ag22
ag22
ag22
ag22
ag22
ag22
ag22
ag22
ag22
ag22
ag22
ag22
ag22
ag22
ag22
ag22
ag22
ag22
ag22
ag22
ag22
ag22
ag22
ag22
ag22
ag22
ag22
ag22
ag22
ag22
ag22
ag22
ag21
ag21
ag21
ag21
ag21
ag21
ag21
ag21
ag21
ag21
ag21
ag21
ag21
ag21
ag21
ag21
ag21
ag21
ag21
ag21
ag21
ag21
ag21
ag21
ag21
ag21
ag21
ag21
ag21
ag21
ag21
ag21
ag21
ag21
ag21
ag21
ag21
ag21
ag21
ag21
ag21
ag21
ag21
ag21
ag21
ag21
ag21
ag21
ag21
ag21
ag21
ag21
ag21
ag21
ag21
ag21
ag21
ag21
ag21
ag21
ag21
ag21
ag21
ag21
ag21
ag21
ag21
ag21
ag21
ag21
ag21
ag21
ag21
ag22
ag21
ag21
ag21
ag21
ag21
ag21
ag21
ag1
ag1
ag1
ag1
ag1
ag1
ag1
ag1
ag1
ag1
ag1
ag1
ag1
ag1
ag1
ag1
ag1
ag1
ag1
ag1
ag1
ag1
ag1
ag1
ag1
ag1
ag1
ag1
ag1
ag1
ag1
ag1
ag1
ag3
ag3
ag1
ag1
ag1
ag1
ag1
ag18
ag18
ag18
ag18
ag7
ag7
ag7
ag7
ag7
ag7
ag7
ag7
ag7
ag7
ag7
ag7
ag7
ag7
ag7
ag7
ag4
ag4
ag4
ag4
ag4
ag4
ag4
ag4
ag4
ag7
ag4
ag4
ag4
ag3
ag3
ag3
ag3
ag3
ag3
ag3
ag3
ag3
ag3
ag3
ag3
ag3
ag3
ag3
ag3
ag3
ag3
ag4
ag4
ag3
ag20
ag20
ag3
ag3
ag17
ag17
ag3
ag3
ag4
ag3
ag3
ag17
ag17
ag17
ag17
ag17
ag17
ag17
ag17
ag17
ag18
ag18
ag18
ag18
ag18
ag18
ag18
ag18
ag18
ag3
ag3
ag3
ag3
ag3
ag8
ag8
ag8
ag8
ag8
ag8
ag8
ag8
ag8
ag8
ag8
ag8
ag8
ag8
ag8
ag8
ag8
ag8
ag8
ag8
ag8
ag8
ag3
ag3
ag3
ag3
ag3
ag3
ag3
ag17
ag17
ag17
ag17
ag17
ag17
ag17
ag18
ag18
ag17
ag17
ag17
ag3
ag3
ag3
ag3
ag3
ag3
ag3
ag3
ag3
ag3
ag3
ag3
ag3
ag3
ag3
ag17
ag17
ag3
ag3
ag3
ag3
ag3
ag3
ag3
ag18
ag18
ag18
ag18
ag18
ag18
ag18
ag18
ag18
ag18
ag18
ag18
ag18
ag18
ag18
ag18
ag18
ag18
ag18
ag18
ag18
ag18
ag18
ag3
ag3
ag17
ag17
ag17
ag18
ag17
ag17
ag17
ag3
ag3
ag17
ag17
ag17
ag17
ag18
ag7
ag7
ag7
ag3
ag3
ag3
ag3
ag3
ag3
ag3
ag3
ag3
ag3
ag3
ag3
ag4
ag4
ag4
ag3
ag4
ag1
ag1
ag1
ag1
ag3
ag3
ag3
ag3
ag3
ag3
ag3
ag3
ag8
ag8
ag8
ag8
ag8
ag8
ag8
ag8
ag8
ag8
ag8
ag8
ag8
ag8
ag8
ag8
ag8
ag8
ag8
ag8
ag8
ag8
ag8
ag8
ag8
ag8
ag8
ag8
ag8
ag8
ag8
ag8
ag8
ag8
ag8
ag8
ag8
ag8
ag8
ag8
ag8
ag7
ag11
ag11
ag11
ag11
ag8
ag8
ag11
ag11
ag11
ag11
ag11
ag8
ag8
ag8
ag8
ag8
ag8
ag8
ag8
ag8
ag8
ag8
ag8
ag8
ag8
ag8
ag8
ag8
ag19
ag19
ag19
ag19
ag19
ag19
ag19
ag19
ag19
ag19
ag19
ag19
ag19
ag19
ag19
ag19
ag19
ag19
ag19
ag19
ag19
ag19
ag19
ag19
ag19
ag19
ag19
ag19
ag19
ag19
ag19
ag19
ag19
ag19
ag19
ag19
ag19
aS'rightToes'
p23
ag23
ag23
ag23
ag23
ag23
ag23
ag23
ag23
ag23
ag23
ag23
ag23
ag23
ag23
ag23
ag23
ag23
ag23
ag23
ag23
ag23
ag23
ag23
ag23
ag23
ag23
ag23
ag23
ag23
ag23
ag23
ag23
ag23
ag23
ag23
ag23
ag23
ag23
ag23
ag23
ag23
ag23
ag23
ag23
ag23
ag23
ag23
ag23
ag23
ag23
ag23
ag23
ag23
ag23
ag23
ag23
ag23
ag23
ag23
ag23
ag23
ag23
ag23
ag23
ag23
ag23
ag23
ag23
ag23
ag23
ag23
ag23
ag23
ag23
ag23
ag23
ag23
ag23
ag23
ag23
ag23
ag23
ag23
ag23
ag23
ag23
ag23
ag23
ag23
ag23
ag23
ag23
ag23
ag23
ag23
ag23
ag23
ag23
ag23
ag23
ag23
ag23
ag23
ag23
ag23
ag23
ag23
ag19
ag19
ag19
ag19
ag19
aS'rightFoot'
p24
ag19
ag24
ag24
ag24
ag24
ag24
ag24
ag24
ag24
ag24
ag24
ag23
ag23
ag23
ag23
ag23
ag23
ag23
ag23
ag24
ag23
ag24
ag23
ag24
ag24
ag23
ag24
ag23
ag23
ag23
ag23
ag24
ag23
ag23
ag23
ag23
ag23
ag23
ag24
ag24
ag24
ag24
ag24
ag24
ag24
ag24
ag24
ag24
ag24
ag24
ag24
ag24
ag24
ag24
ag24
ag24
ag24
ag24
ag24
ag24
ag24
ag24
ag24
ag24
ag24
ag24
ag24
ag24
ag24
ag24
ag24
ag24
ag24
ag24
ag24
ag24
ag24
ag24
ag24
ag24
ag24
ag24
ag24
ag24
ag24
ag24
ag24
ag24
ag24
ag24
ag24
ag24
ag24
ag24
ag24
ag24
ag24
ag24
ag24
ag24
ag24
ag24
ag24
ag24
ag24
ag24
ag24
ag24
ag24
ag24
ag24
ag24
ag24
ag24
ag24
ag24
ag24
ag24
ag24
ag24
ag24
ag24
ag24
ag24
ag24
ag24
ag24
ag24
ag24
ag24
ag24
ag24
ag24
ag24
ag24
ag24
ag24
ag24
ag24
ag24
ag24
ag24
ag24
ag24
ag24
ag19
ag19
ag19
ag11
ag7
ag7
ag7
ag11
ag4
ag3
ag1
ag1
ag1
ag1
ag1
ag1
ag1
ag1
ag1
ag1
a.